(dp1
S'3129779187'
p2
I0
sS'1699374488'
p3
I1
sS'1317928829'
p4
I2
sS'944897662'
p5
I3
sS'195973264'
p6
I4
sS'1541564886'
p7
I5
sS'3014690438'
p8
I7
sS'959300591'
p9
I8
sS'3019985439'
p10
I9
sS'4146675310'
p11
I10
sS'2448969855'
p12
I11
sS'3215198745'
p13
I12
sS'1520424871'
p14
I13
sS'1672939792'
p15
I14
sS'3637069534'
p16
I15
sS'1669357187'
p17
I16
sS'569486651'
p18
I17
sS'3083116980'
p19
I18
sS'3108358241'
p20
I19
sS'1657497614'
p21
I2862
sS'3573650571'
p22
I20
sS'1507678209'
p23
I21
sS'1109682681'
p24
I22
sS'3910177999'
p25
I23
sS'584188387'
p26
I25
sS'3719575513'
p27
I2053
sS'244644122'
p28
I26
sS'2587246668'
p29
I27
sS'2893327845'
p30
I28
sS'2501052021'
p31
I29
sS'146035325'
p32
I31
sS'3843287866'
p33
I32
sS'1548827068'
p34
I33
sS'1287850161'
p35
I34
sS'576776993'
p36
I2271
sS'2254327912'
p37
I35
sS'2644266735'
p38
I2445
sS'944898886'
p39
I36
sS'82923911'
p40
I37
sS'193920233'
p41
I38
sS'3294080054'
p42
I39
sS'2818909605'
p43
I40
sS'203050907'
p44
I42
sS'2721011967'
p45
I2738
sS'2958453070'
p46
I258
sS'1091610794'
p47
I44
sS'2766172404'
p48
I45
sS'2295604395'
p49
I46
sS'1072041355'
p50
I47
sS'2991097972'
p51
I48
sS'180191037'
p52
I49
sS'941192286'
p53
I50
sS'1711604959'
p54
I2274
sS'1676582816'
p55
I51
sS'1091746693'
p56
I52
sS'2249748129'
p57
I53
sS'4107865904'
p58
I54
sS'45148230'
p59
I2866
sS'3956887319'
p60
I1725
sS'3221482892'
p61
I57
sS'1995670379'
p62
I58
sS'3378002804'
p63
I59
sS'282487230'
p64
I2277
sS'668160678'
p65
I60
sS'1213367737'
p66
I61
sS'4030714899'
p67
I62
sS'1717882536'
p68
I63
sS'1932371532'
p69
I64
sS'870439648'
p70
I65
sS'3220398573'
p71
I66
sS'1832146052'
p72
I67
sS'1196973493'
p73
I68
sS'3609055912'
p74
I69
sS'3203217285'
p75
I70
sS'2457737664'
p76
I71
sS'242737714'
p77
I72
sS'4238211626'
p78
I73
sS'609331956'
p79
I75
sS'3562653363'
p80
I76
sS'1414301782'
p81
I78
sS'4141924620'
p82
I79
sS'3555641932'
p83
I80
sS'2351788775'
p84
I81
sS'2949876199'
p85
I82
sS'1076497247'
p86
I83
sS'1325052851'
p87
I84
sS'836628838'
p88
I3312
sS'3021411633'
p89
I85
sS'3525636297'
p90
I87
sS'216475936'
p91
I2281
sS'2995967526'
p92
I89
sS'1174496191'
p93
I90
sS'3935809106'
p94
I91
sS'4048868881'
p95
I92
sS'3325600533'
p96
I93
sS'3155504635'
p97
I94
sS'581584739'
p98
I95
sS'3287919994'
p99
I96
sS'110342379'
p100
I97
sS'1652448351'
p101
I98
sS'1935452377'
p102
I3327
sS'2563679078'
p103
I2594
sS'1697527574'
p104
I100
sS'3291092348'
p105
I101
sS'427369081'
p106
I102
sS'267902048'
p107
I103
sS'4169100339'
p108
I104
sS'1044078286'
p109
I105
sS'2495934002'
p110
I106
sS'2875507009'
p111
I107
sS'3616389778'
p112
I108
sS'985547042'
p113
I109
sS'265142861'
p114
I110
sS'2438466073'
p115
I111
sS'4151484001'
p116
I112
sS'1210062900'
p117
I113
sS'694221975'
p118
I115
sS'2560062488'
p119
I116
sS'1727210805'
p120
I603
sS'1800952806'
p121
I118
sS'3108480638'
p122
I119
sS'204568422'
p123
I120
sS'199379035'
p124
I1733
sS'2822972903'
p125
I123
sS'3614812788'
p126
I124
sS'1614557413'
p127
I125
sS'3198320860'
p128
I127
sS'1943715600'
p129
I128
sS'515567373'
p130
I2287
sS'2815174275'
p131
I130
sS'803166736'
p132
I131
sS'3091527231'
p133
I132
sS'457159668'
p134
I133
sS'2043422334'
p135
I134
sS'2702656559'
p136
I135
sS'3042642967'
p137
I137
sS'451317840'
p138
I138
sS'3035544663'
p139
I139
sS'1150230846'
p140
I140
sS'483332100'
p141
I141
sS'3415507920'
p142
I923
sS'15390083'
p143
I143
sS'648323757'
p144
I144
sS'1739369956'
p145
I145
sS'2286248913'
p146
I146
sS'263599897'
p147
I147
sS'1148170980'
p148
I148
sS'2594894760'
p149
I149
sS'351313256'
p150
I150
sS'2312878118'
p151
I151
sS'2805293886'
p152
I152
sS'85640691'
p153
I153
sS'1455080965'
p154
I154
sS'3763731039'
p155
I155
sS'2319889082'
p156
I156
sS'1186306562'
p157
I158
sS'1064453408'
p158
I159
sS'160673392'
p159
I1022
sS'3946163681'
p160
I761
sS'1336664122'
p161
I162
sS'3904408941'
p162
I163
sS'1951340806'
p163
I164
sS'1123244794'
p164
I165
sS'3770864710'
p165
I166
sS'2501280523'
p166
I168
sS'3780551356'
p167
I1075
sS'2264585544'
p168
I3199
sS'402625828'
p169
I170
sS'1320034490'
p170
I171
sS'1063393664'
p171
I172
sS'2257286686'
p172
I173
sS'197344023'
p173
I174
sS'2129690960'
p174
I175
sS'881544435'
p175
I176
sS'2914443596'
p176
I177
sS'1221659619'
p177
I178
sS'1738544360'
p178
I1136
sS'2394083016'
p179
I180
sS'980154606'
p180
I181
sS'1586608043'
p181
I1152
sS'3001870892'
p182
I183
sS'2513652558'
p183
I184
sS'1537885461'
p184
I185
sS'2393365897'
p185
I2892
sS'2707485519'
p186
I187
sS'981252249'
p187
I188
sS'649114603'
p188
I189
sS'1313619105'
p189
I190
sS'1435067643'
p190
I193
sS'322208106'
p191
I1232
sS'1304321680'
p192
I195
sS'2329661605'
p193
I196
sS'3626676306'
p194
I197
sS'3208908819'
p195
I198
sS'3196759129'
p196
I199
sS'1540298318'
p197
I200
sS'3556981605'
p198
I201
sS'486871070'
p199
I1744
sS'1627419158'
p200
I203
sS'3296184072'
p201
I1456
sS'1953776591'
p202
I1284
sS'3793812304'
p203
I208
sS'3757971767'
p204
I209
sS'2261895798'
p205
I210
sS'2133006016'
p206
I211
sS'475620820'
p207
I212
sS'265212492'
p208
I213
sS'358368837'
p209
I214
sS'3911822363'
p210
I215
sS'3581835660'
p211
I1936
sS'3182595870'
p212
I217
sS'1882369333'
p213
I218
sS'2388007096'
p214
I219
sS'3398074284'
p215
I1357
sS'1075504486'
p216
I221
sS'3841001673'
p217
I222
sS'689225317'
p218
I223
sS'3628146836'
p219
I1376
sS'4246840619'
p220
I225
sS'661656054'
p221
I226
sS'996222490'
p222
I227
sS'686015101'
p223
I228
sS'528810329'
p224
I230
sS'2328301807'
p225
I231
sS'547127090'
p226
I232
sS'1720019070'
p227
I233
sS'430443066'
p228
I234
sS'1487949494'
p229
I235
sS'2937013787'
p230
I236
sS'696967670'
p231
I237
sS'1716791097'
p232
I239
sS'4119250454'
p233
I240
sS'2062768867'
p234
I241
sS'1073519980'
p235
I242
sS'3851487388'
p236
I243
sS'2496837007'
p237
I244
sS'3765513583'
p238
I245
sS'2600681841'
p239
I2764
sS'436276762'
p240
I247
sS'181961047'
p241
I248
sS'123290209'
p242
I249
sS'3668442410'
p243
I250
sS'2495861756'
p244
I251
sS'1016099896'
p245
I252
sS'656664529'
p246
I253
sS'2048999821'
p247
I1751
sS'602317951'
p248
I255
sS'677234912'
p249
I256
sS'1336647234'
p250
I257
sS'1214698655'
p251
I43
sS'891035674'
p252
I259
sS'243893094'
p253
I260
sS'3920980605'
p254
I261
sS'4057602883'
p255
I262
sS'904520689'
p256
I263
sS'1109825061'
p257
I1209
sS'1754474767'
p258
I265
sS'2855659739'
p259
I266
sS'3365349866'
p260
I267
sS'3983124874'
p261
I238
sS'776025327'
p262
I269
sS'2818464367'
p263
I270
sS'1895700651'
p264
I271
sS'70585535'
p265
I272
sS'1308650192'
p266
I274
sS'1251857185'
p267
I2952
sS'351801772'
p268
I275
sS'4181543522'
p269
I276
sS'2713002362'
p270
I277
sS'3287429621'
p271
I278
sS'1748492203'
p272
I279
sS'1486339292'
p273
I280
sS'2915713626'
p274
I281
sS'3052673147'
p275
I282
sS'1540705179'
p276
I283
sS'3269497309'
p277
I284
sS'207382248'
p278
I285
sS'967361915'
p279
I286
sS'4107349498'
p280
I287
sS'140576550'
p281
I288
sS'1622015724'
p282
I289
sS'3556989632'
p283
I290
sS'693819894'
p284
I291
sS'2147677924'
p285
I1756
sS'111840914'
p286
I293
sS'2579352265'
p287
I294
sS'22840021'
p288
I2309
sS'1193753309'
p289
I296
sS'3282950773'
p290
I297
sS'4075574010'
p291
I298
sS'1637039865'
p292
I300
sS'305160382'
p293
I2909
sS'1482478167'
p294
I301
sS'3258220935'
p295
I2607
sS'954469709'
p296
I302
sS'691313196'
p297
I303
sS'2087739026'
p298
I304
sS'2517213950'
p299
I306
sS'3810743959'
p300
I1084
sS'2366244106'
p301
I1020
sS'1757874805'
p302
I309
sS'3253486500'
p303
I310
sS'1865714809'
p304
I311
sS'1781227779'
p305
I312
sS'2112130968'
p306
I313
sS'3891396601'
p307
I314
sS'1887766017'
p308
I315
sS'1859726822'
p309
I317
sS'1985184901'
p310
I319
sS'37106093'
p311
I817
sS'1844741381'
p312
I321
sS'847928412'
p313
I322
sS'1612463745'
p314
I323
sS'3178723259'
p315
I324
sS'122743553'
p316
I325
sS'321386359'
p317
I326
sS'183980147'
p318
I308
sS'2825444746'
p319
I791
sS'1572816023'
p320
I2912
sS'2411451936'
p321
I330
sS'45139176'
p322
I331
sS'214127647'
p323
I332
sS'3550832930'
p324
I333
sS'3491804473'
p325
I334
sS'3456890538'
p326
I335
sS'630652349'
p327
I336
sS'2193628344'
p328
I337
sS'1131940169'
p329
I338
sS'3962251454'
p330
I2914
sS'3261632504'
p331
I340
sS'2571895925'
p332
I2313
sS'531967718'
p333
I342
sS'691831024'
p334
I343
sS'2325340243'
p335
I344
sS'3826739942'
p336
I1038
sS'393817534'
p337
I2408
sS'3264469018'
p338
I346
sS'1085490219'
p339
I347
sS'2680339394'
p340
I348
sS'4151136641'
p341
I349
sS'3970825989'
p342
I350
sS'3627571763'
p343
I351
sS'988874074'
p344
I352
sS'3365445357'
p345
I1227
sS'1233124121'
p346
I354
sS'3165928866'
p347
I355
sS'2939775948'
p348
I356
sS'871177088'
p349
I357
sS'3858694816'
p350
I359
sS'324467789'
p351
I360
sS'328922601'
p352
I361
sS'3240337776'
p353
I1230
sS'659447721'
p354
I363
sS'1614015549'
p355
I364
sS'2993320562'
p356
I365
sS'3904948602'
p357
I366
sS'2892947506'
p358
I367
sS'3098511794'
p359
I2724
sS'3535608264'
p360
I206
sS'605378672'
p361
I370
sS'1757163647'
p362
I371
sS'2271261888'
p363
I372
sS'2338481531'
p364
I1770
sS'2875543516'
p365
I374
sS'2291885035'
p366
I375
sS'1050303296'
p367
I376
sS'715159059'
p368
I377
sS'2285462405'
p369
I379
sS'3061219196'
p370
I380
sS'3519657066'
p371
I381
sS'905852095'
p372
I382
sS'3669633546'
p373
I383
sS'1268093476'
p374
I385
sS'3601599789'
p375
I2217
sS'3257773536'
p376
I387
sS'3804368962'
p377
I388
sS'255311196'
p378
I389
sS'1072368701'
p379
I2323
sS'2430779081'
p380
I391
sS'988160405'
p381
I393
sS'4185425091'
p382
I394
sS'2828200780'
p383
I395
sS'555727671'
p384
I1235
sS'1857390350'
p385
I398
sS'2590902433'
p386
I400
sS'1346837558'
p387
I401
sS'3222079869'
p388
I402
sS'3941958556'
p389
I403
sS'1386214900'
p390
I404
sS'3918374668'
p391
I405
sS'2318198315'
p392
I406
sS'66260844'
p393
I407
sS'74368740'
p394
I408
sS'2761832946'
p395
I409
sS'3927635634'
p396
I410
sS'651367901'
p397
I411
sS'2238790970'
p398
I412
sS'2020751512'
p399
I413
sS'1838447403'
p400
I414
sS'1354205322'
p401
I415
sS'594741805'
p402
I416
sS'96542289'
p403
I417
sS'4282954307'
p404
I418
sS'3799738504'
p405
I419
sS'314484928'
p406
I420
sS'747578727'
p407
I421
sS'1985852583'
p408
I422
sS'2217567238'
p409
I423
sS'2848481402'
p410
I424
sS'2979487597'
p411
I425
sS'2637352610'
p412
I426
sS'2107308395'
p413
I427
sS'3151272434'
p414
I428
sS'285396757'
p415
I429
sS'1143069903'
p416
I430
sS'1267593079'
p417
I431
sS'3654861045'
p418
I2925
sS'3325628838'
p419
I433
sS'637288269'
p420
I1794
sS'396929851'
p421
I435
sS'2985559658'
p422
I437
sS'812299615'
p423
I2332
sS'423190387'
p424
I439
sS'3383460510'
p425
I440
sS'2111847795'
p426
I441
sS'2014445987'
p427
I442
sS'1369905557'
p428
I443
sS'3759296736'
p429
I444
sS'2238882361'
p430
I445
sS'3773947618'
p431
I2930
sS'2536109970'
p432
I447
sS'2290297293'
p433
I448
sS'986039272'
p434
I449
sS'2102662137'
p435
I450
sS'2444212053'
p436
I451
sS'2467706552'
p437
I452
sS'3631889944'
p438
I453
sS'29002074'
p439
I454
sS'3926920467'
p440
I455
sS'1467007408'
p441
I1244
sS'3593287342'
p442
I457
sS'3598881287'
p443
I458
sS'2984260178'
p444
I459
sS'2669808667'
p445
I460
sS'2638473114'
p446
I461
sS'1194867611'
p447
I462
sS'3046595544'
p448
I99
sS'82610705'
p449
I1246
sS'1006838695'
p450
I465
sS'3492312016'
p451
I466
sS'3734794530'
p452
I468
sS'3080858756'
p453
I2557
sS'38974975'
p454
I469
sS'2671029253'
p455
I470
sS'3118938050'
p456
I471
sS'3647725503'
p457
I472
sS'327414596'
p458
I473
sS'3350047181'
p459
I476
sS'3791414763'
p460
I3280
sS'2863143805'
p461
I477
sS'3292982761'
p462
I478
sS'1455874424'
p463
I479
sS'2726693879'
p464
I480
sS'576889228'
p465
I481
sS'1964994682'
p466
I482
sS'2467980416'
p467
I483
sS'4201750807'
p468
I484
sS'913890035'
p469
I485
sS'3317343091'
p470
I486
sS'895967408'
p471
I487
sS'2114638118'
p472
I1785
sS'1075375005'
p473
I489
sS'749863583'
p474
I490
sS'745331470'
p475
I491
sS'2962659545'
p476
I492
sS'2086141202'
p477
I493
sS'335269852'
p478
I2342
sS'3118355226'
p479
I495
sS'3855705749'
p480
I496
sS'666534021'
p481
I497
sS'356982085'
p482
I498
sS'983894136'
p483
I500
sS'2188094871'
p484
I501
sS'2028372118'
p485
I2343
sS'1152125988'
p486
I503
sS'2187183134'
p487
I504
sS'3968152684'
p488
I505
sS'2706381153'
p489
I2901
sS'2989025224'
p490
I508
sS'554693050'
p491
I509
sS'1737346733'
p492
I510
sS'3751635372'
p493
I2344
sS'2446596885'
p494
I513
sS'2183586456'
p495
I514
sS'517270916'
p496
I680
sS'2520120463'
p497
I516
sS'2664817652'
p498
I517
sS'570405433'
p499
I518
sS'3622262372'
p500
I519
sS'2633145288'
p501
I2593
sS'4030525076'
p502
I521
sS'2491957982'
p503
I522
sS'2202271093'
p504
I523
sS'4159956578'
p505
I524
sS'2777195317'
p506
I525
sS'1221271987'
p507
I526
sS'3599572670'
p508
I527
sS'614599699'
p509
I3368
sS'2936209614'
p510
I528
sS'185422302'
p511
I529
sS'1726345056'
p512
I530
sS'3029988578'
p513
I531
sS'2394571811'
p514
I2022
sS'1062984942'
p515
I532
sS'1134784132'
p516
I534
sS'2560745948'
p517
I535
sS'611059554'
p518
I536
sS'1851530247'
p519
I537
sS'3674200063'
p520
I538
sS'3647778578'
p521
I539
sS'3115928657'
p522
I540
sS'2177461994'
p523
I541
sS'4091804141'
p524
I543
sS'1217122759'
p525
I544
sS'3453760477'
p526
I545
sS'3316923302'
p527
I595
sS'299446963'
p528
I547
sS'462450211'
p529
I548
sS'2967741107'
p530
I550
sS'3341220404'
p531
I551
sS'1372630997'
p532
I2036
sS'2187693519'
p533
I552
sS'980272932'
p534
I553
sS'4067602271'
p535
I1795
sS'1296007357'
p536
I555
sS'2842187594'
p537
I556
sS'2195586830'
p538
I557
sS'3036141956'
p539
I558
sS'1568770334'
p540
I559
sS'1567970024'
p541
I560
sS'830686203'
p542
I561
sS'713889887'
p543
I126
sS'3591151863'
p544
I564
sS'2628219969'
p545
I565
sS'3715650761'
p546
I273
sS'10329108'
p547
I567
sS'3444618080'
p548
I568
sS'220184636'
p549
I569
sS'1954193338'
p550
I570
sS'1452633375'
p551
I571
sS'3476937584'
p552
I572
sS'4289419892'
p553
I573
sS'1093568005'
p554
I574
sS'4244109605'
p555
I575
sS'2670196825'
p556
I576
sS'637505307'
p557
I577
sS'4020164258'
p558
I578
sS'1485684679'
p559
I579
sS'1546141211'
p560
I3127
sS'1528359455'
p561
I580
sS'4219701031'
p562
I581
sS'3764872798'
p563
I583
sS'507847098'
p564
I584
sS'770526360'
p565
I585
sS'569536605'
p566
I586
sS'1493407039'
p567
I587
sS'3102217094'
p568
I3172
sS'870307659'
p569
I588
sS'3003418192'
p570
I589
sS'2943972367'
p571
I590
sS'3148555709'
p572
I591
sS'1279721997'
p573
I592
sS'1848901690'
p574
I593
sS'2212184935'
p575
I594
sS'3388914512'
p576
I596
sS'3685921102'
p577
I597
sS'1383404582'
p578
I598
sS'2505058685'
p579
I599
sS'4252018912'
p580
I601
sS'203456139'
p581
I602
sS'1234792409'
p582
I604
sS'1573621317'
p583
I605
sS'1952851403'
p584
I606
sS'516110926'
p585
I607
sS'1531475209'
p586
I610
sS'2265864872'
p587
I611
sS'2634481972'
p588
I1270
sS'1671510792'
p589
I613
sS'2585857017'
p590
I614
sS'1917038415'
p591
I615
sS'1399383819'
p592
I616
sS'3513858183'
p593
I617
sS'2024711643'
p594
I618
sS'3436715440'
p595
I169
sS'4164388326'
p596
I3326
sS'3947821070'
p597
I620
sS'2600683125'
p598
I621
sS'310846555'
p599
I622
sS'3785115584'
p600
I623
sS'383587770'
p601
I624
sS'1123831146'
p602
I625
sS'3427056824'
p603
I626
sS'2071842684'
p604
I1274
sS'137002204'
p605
I628
sS'1607711586'
p606
I629
sS'4081761804'
p607
I630
sS'2544817539'
p608
I631
sS'3613178093'
p609
I632
sS'599785185'
p610
I633
sS'1615303306'
p611
I634
sS'1232503863'
p612
I635
sS'743705823'
p613
I1800
sS'2386480530'
p614
I636
sS'2807567247'
p615
I637
sS'1367498504'
p616
I638
sS'2644859372'
p617
I639
sS'110310789'
p618
I640
sS'458097400'
p619
I641
sS'3371598262'
p620
I642
sS'2818060180'
p621
I643
sS'3646961870'
p622
I644
sS'1764410879'
p623
I646
sS'447244169'
p624
I648
sS'3892760681'
p625
I649
sS'2271406145'
p626
I651
sS'4213772349'
p627
I652
sS'4136999827'
p628
I653
sS'4289724715'
p629
I368
sS'2305032569'
p630
I655
sS'3841524478'
p631
I656
sS'975501999'
p632
I657
sS'3887778002'
p633
I658
sS'738324703'
p634
I1817
sS'1707278925'
p635
I660
sS'2819638620'
p636
I2957
sS'413881487'
p637
I1818
sS'2203000569'
p638
I662
sS'4175659797'
p639
I663
sS'2413535648'
p640
I664
sS'352769719'
p641
I665
sS'1595465532'
p642
I666
sS'632808865'
p643
I667
sS'3071093998'
p644
I668
sS'651240040'
p645
I669
sS'1023714879'
p646
I670
sS'199120737'
p647
I671
sS'296126900'
p648
I672
sS'3862393256'
p649
I474
sS'4073053389'
p650
I674
sS'1628172447'
p651
I675
sS'212922688'
p652
I676
sS'4195841083'
p653
I677
sS'2728047278'
p654
I678
sS'682721107'
p655
I679
sS'2329665147'
p656
I954
sS'609630180'
p657
I681
sS'3153655575'
p658
I682
sS'2344133160'
p659
I683
sS'528289771'
p660
I2910
sS'33509612'
p661
I684
sS'1008276324'
p662
I685
sS'4238321438'
p663
I686
sS'286293491'
p664
I2698
sS'2676225924'
p665
I2963
sS'248805577'
p666
I688
sS'2559434877'
p667
I689
sS'964184183'
p668
I690
sS'1725995841'
p669
I691
sS'16210231'
p670
I2123
sS'2706298619'
p671
I692
sS'3069569833'
p672
I693
sS'3368619983'
p673
I2378
sS'4060379526'
p674
I695
sS'2566144998'
p675
I696
sS'4138013784'
p676
I697
sS'3244428383'
p677
I650
sS'2650493630'
p678
I699
sS'2883004291'
p679
I700
sS'3530946278'
p680
I701
sS'2163512224'
p681
I2896
sS'3338812734'
p682
I2380
sS'2716313754'
p683
I703
sS'1551848670'
p684
I704
sS'4045020395'
p685
I705
sS'2243065045'
p686
I706
sS'2780094512'
p687
I707
sS'3998399905'
p688
I708
sS'3336438888'
p689
I709
sS'396008921'
p690
I710
sS'1815721382'
p691
I711
sS'1561371437'
p692
I712
sS'3885352810'
p693
I713
sS'3497012580'
p694
I715
sS'4228123262'
p695
I582
sS'3442212683'
p696
I717
sS'3300092451'
p697
I1825
sS'608372256'
p698
I719
sS'2314166008'
p699
I720
sS'906981127'
p700
I721
sS'2686965763'
p701
I722
sS'3141270743'
p702
I724
sS'3389282421'
p703
I725
sS'2490559498'
p704
I2383
sS'3025856715'
p705
I727
sS'999268198'
p706
I728
sS'2583651606'
p707
I729
sS'3682151225'
p708
I730
sS'2705896863'
p709
I731
sS'2057654985'
p710
I732
sS'2711982636'
p711
I733
sS'366365683'
p712
I734
sS'1774252774'
p713
I2945
sS'893322374'
p714
I878
sS'2381156995'
p715
I736
sS'2744115938'
p716
I737
sS'1044598291'
p717
I1289
sS'2844491503'
p718
I739
sS'3183278547'
p719
I2386
sS'2480816831'
p720
I741
sS'4214369322'
p721
I742
sS'4232243965'
p722
I743
sS'938766697'
p723
I744
sS'4081921627'
p724
I745
sS'1328697582'
p725
I746
sS'2294227413'
p726
I929
sS'3041198590'
p727
I748
sS'1625116475'
p728
I749
sS'1296420014'
p729
I750
sS'541187878'
p730
I751
sS'2194944131'
p731
I752
sS'442080465'
p732
I753
sS'414832767'
p733
I754
sS'1298181835'
p734
I755
sS'2001549733'
p735
I936
sS'3986193980'
p736
I757
sS'245442083'
p737
I758
sS'1049146719'
p738
I1005
sS'1299595690'
p739
I760
sS'3336162241'
p740
I762
sS'932543338'
p741
I3136
sS'1227446685'
p742
I1831
sS'1060557660'
p743
I764
sS'4057542584'
p744
I765
sS'3971850850'
p745
I766
sS'3811264923'
p746
I767
sS'1696780091'
p747
I768
sS'3193929919'
p748
I769
sS'1793252788'
p749
I770
sS'703001700'
p750
I1099
sS'2056142684'
p751
I772
sS'2932877456'
p752
I773
sS'910947719'
p753
I3177
sS'2322320168'
p754
I774
sS'211046503'
p755
I775
sS'1743103684'
p756
I776
sS'4162525077'
p757
I777
sS'916547437'
p758
I778
sS'3936585198'
p759
I1164
sS'3303967764'
p760
I1174
sS'1079339663'
p761
I782
sS'2458429643'
p762
I3382
sS'3697489067'
p763
I783
sS'3027707150'
p764
I784
sS'767269269'
p765
I1192
sS'1769475808'
p766
I786
sS'4100120866'
p767
I787
sS'3430986998'
p768
I788
sS'4195660981'
p769
I790
sS'2254352523'
p770
I792
sS'2867397699'
p771
I1240
sS'4288238269'
p772
I1840
sS'280995052'
p773
I795
sS'792037916'
p774
I1909
sS'3643380555'
p775
I797
sS'3318646261'
p776
I798
sS'712040216'
p777
I1864
sS'20041353'
p778
I800
sS'1168909050'
p779
I802
sS'1751890352'
p780
I803
sS'1774655165'
p781
I805
sS'3711334312'
p782
I806
sS'3236041774'
p783
I807
sS'306422496'
p784
I2981
sS'675129768'
p785
I810
sS'863771353'
p786
I811
sS'978642210'
p787
I812
sS'3870800241'
p788
I813
sS'4236494'
p789
I1846
sS'3663573906'
p790
I1374
sS'2642080861'
p791
I816
sS'2320854059'
p792
I818
sS'2054648409'
p793
I2399
sS'3953979752'
p794
I819
sS'2623537385'
p795
I820
sS'4042546595'
p796
I821
sS'2008761267'
p797
I822
sS'3102820911'
p798
I823
sS'1707093494'
p799
I824
sS'2856945250'
p800
I825
sS'2489943153'
p801
I826
sS'248375618'
p802
I827
sS'724978354'
p803
I828
sS'1539256277'
p804
I829
sS'2921156307'
p805
I830
sS'3198823658'
p806
I831
sS'2722010150'
p807
I832
sS'2390912815'
p808
I833
sS'1421630185'
p809
I834
sS'41934198'
p810
I835
sS'4246728549'
p811
I836
sS'3894667987'
p812
I838
sS'1759431765'
p813
I839
sS'4231656286'
p814
I840
sS'1287950172'
p815
I841
sS'2834313805'
p816
I842
sS'3310718710'
p817
I843
sS'4157381568'
p818
I844
sS'1665746866'
p819
I845
sS'1023717643'
p820
I846
sS'2400078243'
p821
I847
sS'374950100'
p822
I848
sS'81458678'
p823
I849
sS'2794470551'
p824
I850
sS'2879905973'
p825
I851
sS'1073831349'
p826
I852
sS'2196784941'
p827
I853
sS'207614139'
p828
I854
sS'3835637004'
p829
I855
sS'1278116367'
p830
I856
sS'3245449378'
p831
I857
sS'1040473939'
p832
I858
sS'1879459765'
p833
I859
sS'3697643704'
p834
I860
sS'1747091728'
p835
I861
sS'2383553413'
p836
I1850
sS'995603012'
p837
I862
sS'1513532936'
p838
I863
sS'988213942'
p839
I864
sS'2863925078'
p840
I865
sS'1889089758'
p841
I866
sS'2967464230'
p842
I867
sS'3186268838'
p843
I868
sS'1223566187'
p844
I870
sS'4162769577'
p845
I871
sS'1038432983'
p846
I872
sS'2712853779'
p847
I874
sS'1669178531'
p848
I875
sS'917166122'
p849
I876
sS'1476755701'
p850
I877
sS'4246087593'
p851
I30
sS'1515805774'
p852
I879
sS'811791433'
p853
I880
sS'685448397'
p854
I881
sS'4001997352'
p855
I882
sS'2404499203'
p856
I1854
sS'3281890361'
p857
I884
sS'4206915288'
p858
I885
sS'4168411373'
p859
I886
sS'1073821707'
p860
I887
sS'256035140'
p861
I888
sS'2448209717'
p862
I889
sS'3248992473'
p863
I890
sS'1463808662'
p864
I2680
sS'282865908'
p865
I891
sS'1873358601'
p866
I892
sS'221442949'
p867
I893
sS'2209002289'
p868
I2041
sS'610133863'
p869
I894
sS'1473654738'
p870
I563
sS'2357605380'
p871
I2453
sS'2957852218'
p872
I898
sS'2861036936'
p873
I899
sS'4091807302'
p874
I900
sS'543735376'
p875
I901
sS'3452328864'
p876
I902
sS'659158929'
p877
I903
sS'883614923'
p878
I904
sS'2692015370'
p879
I905
sS'3151372447'
p880
I906
sS'1449039754'
p881
I908
sS'3876455884'
p882
I1863
sS'2481110083'
p883
I909
sS'2199467633'
p884
I2414
sS'147627126'
p885
I911
sS'223870698'
p886
I912
sS'612098420'
p887
I913
sS'1407394581'
p888
I2003
sS'33930603'
p889
I915
sS'1974832510'
p890
I916
sS'547259551'
p891
I917
sS'1302145719'
p892
I918
sS'1610329121'
p893
I919
sS'1114094430'
p894
I920
sS'928375715'
p895
I921
sS'1422103142'
p896
I922
sS'2171206786'
p897
I142
sS'3331695347'
p898
I924
sS'1066251866'
p899
I925
sS'3085653149'
p900
I926
sS'1679420385'
p901
I927
sS'613604753'
p902
I928
sS'168520465'
p903
I747
sS'2039668267'
p904
I930
sS'2736679402'
p905
I931
sS'2695530712'
p906
I932
sS'3878851138'
p907
I933
sS'216180088'
p908
I934
sS'3481754148'
p909
I935
sS'380985803'
p910
I937
sS'3994781966'
p911
I938
sS'4257951883'
p912
I939
sS'4135589149'
p913
I940
sS'2749110768'
p914
I941
sS'429489211'
p915
I942
sS'4128087249'
p916
I943
sS'1697865048'
p917
I1317
sS'3944910705'
p918
I945
sS'2222375586'
p919
I946
sS'4217222631'
p920
I947
sS'1304554072'
p921
I948
sS'2196432988'
p922
I949
sS'609504174'
p923
I950
sS'913235409'
p924
I3179
sS'1853545080'
p925
I951
sS'269394305'
p926
I952
sS'3210947692'
p927
I953
sS'1623287180'
p928
I955
sS'24978365'
p929
I956
sS'876103013'
p930
I957
sS'1638568594'
p931
I41
sS'1914182220'
p932
I959
sS'3176074542'
p933
I1348
sS'2971889961'
p934
I960
sS'1947430492'
p935
I962
sS'603202352'
p936
I963
sS'552316934'
p937
I964
sS'1474775097'
p938
I966
sS'1703562892'
p939
I967
sS'1320099877'
p940
I968
sS'1807506815'
p941
I1226
sS'2444629079'
p942
I970
sS'3187292148'
p943
I971
sS'3076967009'
p944
I972
sS'1101602207'
p945
I973
sS'147852768'
p946
I974
sS'1601125543'
p947
I975
sS'2234899895'
p948
I976
sS'2291100279'
p949
I977
sS'2962003608'
p950
I978
sS'3412293331'
p951
I2422
sS'3608734461'
p952
I980
sS'985245482'
p953
I981
sS'3803479601'
p954
I982
sS'1030564391'
p955
I983
sS'2804635189'
p956
I984
sS'3889944197'
p957
I985
sS'1580848851'
p958
I986
sS'2567514456'
p959
I3004
sS'1349230619'
p960
I2425
sS'777634122'
p961
I990
sS'240521211'
p962
I991
sS'1071963586'
p963
I992
sS'3900967678'
p964
I993
sS'765240064'
p965
I994
sS'4106525792'
p966
I995
sS'769376177'
p967
I996
sS'1191065441'
p968
I914
sS'686151443'
p969
I998
sS'2791418962'
p970
I999
sS'618158373'
p971
I1000
sS'3537668660'
p972
I1001
sS'437050836'
p973
I1002
sS'1408344828'
p974
I1003
sS'1220188351'
p975
I1004
sS'3427263623'
p976
I759
sS'1854575078'
p977
I1006
sS'1788141082'
p978
I3285
sS'130441156'
p979
I1007
sS'2408246939'
p980
I1008
sS'3554343061'
p981
I1009
sS'1432546106'
p982
I1010
sS'28806872'
p983
I1011
sS'1620608449'
p984
I1877
sS'1353596523'
p985
I1014
sS'1025593498'
p986
I1015
sS'785251375'
p987
I1016
sS'1329344819'
p988
I318
sS'122826603'
p989
I1018
sS'4233914020'
p990
I1019
sS'3573906831'
p991
I1728
sS'4057720928'
p992
I1021
sS'7547671'
p993
I160
sS'2086869786'
p994
I1023
sS'1732859563'
p995
I647
sS'2337052402'
p996
I1025
sS'1230559341'
p997
I1026
sS'1561107146'
p998
I1027
sS'439366650'
p999
I1028
sS'2477193718'
p1000
I1029
sS'655721325'
p1001
I1030
sS'1626755496'
p1002
I1031
sS'3724535659'
p1003
I2029
sS'1568529849'
p1004
I1033
sS'2684781446'
p1005
I1034
sS'2694023881'
p1006
I1035
sS'2888420415'
p1007
I1036
sS'912476748'
p1008
I2439
sS'1464451813'
p1009
I1039
sS'1997928281'
p1010
I1040
sS'2381922770'
p1011
I1041
sS'3410532659'
p1012
I1042
sS'947750317'
p1013
I1043
sS'2231456394'
p1014
I1044
sS'3954972720'
p1015
I1045
sS'3102057813'
p1016
I1046
sS'2301083010'
p1017
I86
sS'3475966810'
p1018
I1048
sS'3064141535'
p1019
I1049
sS'2597201802'
p1020
I1050
sS'2069512156'
p1021
I2443
sS'3193697919'
p1022
I3166
sS'3715196259'
p1023
I1053
sS'3834655845'
p1024
I1054
sS'725162516'
p1025
I1055
sS'665747414'
p1026
I1056
sS'3508561523'
p1027
I1057
sS'983219028'
p1028
I1058
sS'256692717'
p1029
I1059
sS'491263047'
p1030
I1060
sS'43026617'
p1031
I2204
sS'3024528036'
p1032
I533
sS'2698716586'
p1033
I1062
sS'763694881'
p1034
I1063
sS'2882325905'
p1035
I1064
sS'2540807169'
p1036
I1065
sS'3981819420'
p1037
I1066
sS'23170479'
p1038
I1067
sS'2679652649'
p1039
I1068
sS'3874603947'
p1040
I1069
sS'4123476974'
p1041
I1070
sS'1369743769'
p1042
I1071
sS'3723896394'
p1043
I1072
sS'1082691947'
p1044
I1073
sS'2106243741'
p1045
I1074
sS'2329755329'
p1046
I1076
sS'2081059890'
p1047
I1077
sS'2936324533'
p1048
I1078
sS'3668457471'
p1049
I1080
sS'588924229'
p1050
I1081
sS'3657335672'
p1051
I1082
sS'1853614834'
p1052
I1083
sS'265682801'
p1053
I3255
sS'1339643555'
p1054
I1087
sS'1049481453'
p1055
I1088
sS'18236457'
p1056
I1089
sS'3469589500'
p1057
I1090
sS'3231170614'
p1058
I1092
sS'2713603391'
p1059
I1093
sS'2185852179'
p1060
I1094
sS'2054531858'
p1061
I2454
sS'4170157131'
p1062
I1096
sS'206173756'
p1063
I1097
sS'381155306'
p1064
I1098
sS'1104375072'
p1065
I1100
sS'3349277777'
p1066
I1101
sS'2638307735'
p1067
I1102
sS'3326031604'
p1068
I1103
sS'931677473'
p1069
I1104
sS'5161061'
p1070
I1105
sS'3548820422'
p1071
I1106
sS'616227847'
p1072
I1107
sS'2391596358'
p1073
I1108
sS'441103517'
p1074
I1109
sS'3969691423'
p1075
I1110
sS'810608905'
p1076
I1887
sS'2488018670'
p1077
I1112
sS'377835263'
p1078
I1343
sS'103955826'
p1079
I1869
sS'1614494381'
p1080
I1114
sS'91139927'
p1081
I1115
sS'3005728385'
p1082
I2458
sS'895953294'
p1083
I1117
sS'3833491880'
p1084
I1118
sS'2532791342'
p1085
I1119
sS'3548214416'
p1086
I1120
sS'113021847'
p1087
I1121
sS'3601181201'
p1088
I1122
sS'3601021922'
p1089
I1123
sS'3554586211'
p1090
I1347
sS'2593432040'
p1091
I1125
sS'1312400822'
p1092
I2474
sS'1426347523'
p1093
I77
sS'635387882'
p1094
I1127
sS'422002690'
p1095
I1128
sS'1053832375'
p1096
I1129
sS'1668335332'
p1097
I1130
sS'3061307316'
p1098
I1349
sS'3488485988'
p1099
I1132
sS'4128216168'
p1100
I1133
sS'1910313147'
p1101
I1134
sS'2258212445'
p1102
I2536
sS'1939233431'
p1103
I1137
sS'1264179509'
p1104
I1138
sS'35565661'
p1105
I2404
sS'3410667855'
p1106
I1139
sS'1467237100'
p1107
I1140
sS'1190190812'
p1108
I1881
sS'2345460195'
p1109
I1141
sS'1104038607'
p1110
I3031
sS'2700330302'
p1111
I1142
sS'668356259'
p1112
I1353
sS'1112792616'
p1113
I1144
sS'1411780050'
p1114
I1145
sS'2584536356'
p1115
I1146
sS'965181412'
p1116
I1147
sS'2756550887'
p1117
I1148
sS'2648736219'
p1118
I1149
sS'1956536963'
p1119
I1150
sS'2763959582'
p1120
I1151
sS'1989811285'
p1121
I1153
sS'685933857'
p1122
I1154
sS'1987194661'
p1123
I1155
sS'1120323401'
p1124
I1156
sS'3071657222'
p1125
I1157
sS'3147653776'
p1126
I1158
sS'373631588'
p1127
I1867
sS'223726744'
p1128
I1159
sS'4120847672'
p1129
I1160
sS'254306319'
p1130
I1161
sS'2176419410'
p1131
I1162
sS'571415268'
p1132
I1163
sS'240047100'
p1133
I780
sS'3751606951'
p1134
I1165
sS'3902408840'
p1135
I1167
sS'1353265512'
p1136
I1168
sS'707928734'
p1137
I1169
sS'1742267789'
p1138
I1170
sS'3823320698'
p1139
I1171
sS'2278013791'
p1140
I1172
sS'1318722285'
p1141
I1173
sS'2712755708'
p1142
I781
sS'1462567031'
p1143
I1175
sS'914476369'
p1144
I1176
sS'2674968860'
p1145
I1177
sS'1328287907'
p1146
I1178
sS'1906220044'
p1147
I1179
sS'2523562208'
p1148
I1180
sS'1966851184'
p1149
I1181
sS'167200370'
p1150
I1182
sS'883237232'
p1151
I1183
sS'2552614841'
p1152
I1184
sS'2063287658'
p1153
I1185
sS'2926898853'
p1154
I1186
sS'2362718183'
p1155
I1187
sS'1008893291'
p1156
I1188
sS'1155485546'
p1157
I1189
sS'171842881'
p1158
I1190
sS'2557219570'
p1159
I1191
sS'1810026348'
p1160
I1193
sS'3787931088'
p1161
I1194
sS'272165392'
p1162
I1363
sS'913508761'
p1163
I1196
sS'156584666'
p1164
I1197
sS'3793249811'
p1165
I1166
sS'2031754020'
p1166
I1199
sS'143093592'
p1167
I1200
sS'2149535146'
p1168
I1201
sS'2927772127'
p1169
I1202
sS'4027957525'
p1170
I1203
sS'1712635579'
p1171
I1204
sS'2944246732'
p1172
I1205
sS'3833425001'
p1173
I1206
sS'2677559053'
p1174
I1207
sS'2792856754'
p1175
I2438
sS'551538117'
p1176
I264
sS'1386311924'
p1177
I268
sS'3994206600'
p1178
I1211
sS'3316715342'
p1179
I1212
sS'1535643599'
p1180
I1213
sS'952689028'
p1181
I1214
sS'1358222118'
p1182
I3042
sS'2178409601'
p1183
I1216
sS'469116393'
p1184
I1217
sS'1805968919'
p1185
I1218
sS'3886616779'
p1186
I506
sS'1109967945'
p1187
I1220
sS'1358236584'
p1188
I1221
sS'2532017830'
p1189
I1222
sS'2033574675'
p1190
I1223
sS'3915913946'
p1191
I1224
sS'3987610774'
p1192
I3045
sS'3399370476'
p1193
I353
sS'3602900286'
p1194
I1228
sS'4095465484'
p1195
I1229
sS'3867241412'
p1196
I362
sS'2512917389'
p1197
I1231
sS'3958701071'
p1198
I2089
sS'1019226310'
p1199
I1711
sS'500857618'
p1200
I1234
sS'1260240845'
p1201
I396
sS'4044282675'
p1202
I1236
sS'2157112080'
p1203
I1237
sS'708073241'
p1204
I1238
sS'197704997'
p1205
I1239
sS'3365642090'
p1206
I793
sS'3670434254'
p1207
I1241
sS'1101021964'
p1208
I1242
sS'533192042'
p1209
I1243
sS'1969578305'
p1210
I456
sS'3191212256'
p1211
I1245
sS'2490592488'
p1212
I464
sS'439316726'
p1213
I1247
sS'128581247'
p1214
I1248
sS'131621903'
p1215
I1250
sS'2457838095'
p1216
I1251
sS'3255013048'
p1217
I1249
sS'2160639516'
p1218
I1253
sS'3123712598'
p1219
I1254
sS'306153925'
p1220
I1255
sS'3580128452'
p1221
I1256
sS'282914818'
p1222
I1257
sS'4235386848'
p1223
I1258
sS'419456233'
p1224
I1259
sS'293229720'
p1225
I1260
sS'3199368063'
p1226
I1261
sS'1330656870'
p1227
I1262
sS'2391268949'
p1228
I1263
sS'4099439378'
p1229
I1264
sS'1114548338'
p1230
I1266
sS'3567042309'
p1231
I1267
sS'2360121322'
p1232
I1377
sS'3484099744'
p1233
I612
sS'2571725299'
p1234
I3054
sS'1372842685'
p1235
I1272
sS'722675569'
p1236
I1273
sS'2321085380'
p1237
I627
sS'900897870'
p1238
I1275
sS'2519101341'
p1239
I1277
sS'2375503792'
p1240
I1278
sS'3292395061'
p1241
I1279
sS'3330527170'
p1242
I1280
sS'1555282107'
p1243
I1281
sS'3861589862'
p1244
I1282
sS'602148753'
p1245
I1283
sS'1017178142'
p1246
I3055
sS'292322045'
p1247
I1285
sS'2166518457'
p1248
I1286
sS'3160835923'
p1249
I3057
sS'2596513149'
p1250
I1288
sS'3480044787'
p1251
I738
sS'1696361679'
p1252
I2484
sS'1548216840'
p1253
I3384
sS'2856693199'
p1254
I1292
sS'419778061'
p1255
I1293
sS'3000809568'
p1256
I1294
sS'3138500404'
p1257
I1295
sS'642317092'
p1258
I1296
sS'540360566'
p1259
I1297
sS'3221698850'
p1260
I958
sS'2421584601'
p1261
I1299
sS'160230482'
p1262
I1300
sS'1176550521'
p1263
I1301
sS'524529500'
p1264
I1302
sS'1654935837'
p1265
I1303
sS'1908507314'
p1266
I1304
sS'383523902'
p1267
I1305
sS'1577437083'
p1268
I1306
sS'4055395044'
p1269
I1307
sS'3316008620'
p1270
I1308
sS'550625442'
p1271
I1309
sS'3954508529'
p1272
I1310
sS'3598524699'
p1273
I1311
sS'4217391078'
p1274
I1312
sS'1611204256'
p1275
I1313
sS'307071731'
p1276
I1314
sS'1342752171'
p1277
I1315
sS'2824647204'
p1278
I1316
sS'3900238416'
p1279
I944
sS'4036617462'
p1280
I1318
sS'1016040879'
p1281
I3068
sS'2328481418'
p1282
I1321
sS'2340199364'
p1283
I1322
sS'96920130'
p1284
I1323
sS'4122019703'
p1285
I1324
sS'3909997753'
p1286
I3070
sS'987701123'
p1287
I1326
sS'312929114'
p1288
I1327
sS'1972874413'
p1289
I1328
sS'1011223331'
p1290
I1329
sS'1645299738'
p1291
I1330
sS'2539871585'
p1292
I1331
sS'1160667975'
p1293
I1332
sS'1377253602'
p1294
I1333
sS'2377207090'
p1295
I3029
sS'1157924193'
p1296
I2597
sS'1585175216'
p1297
I1334
sS'699420462'
p1298
I1335
sS'184140061'
p1299
I1336
sS'2626409021'
p1300
I1338
sS'831595223'
p1301
I1339
sS'379327893'
p1302
I1340
sS'3543618219'
p1303
I1342
sS'4196666928'
p1304
I1113
sS'105347632'
p1305
I1344
sS'1034249941'
p1306
I1345
sS'4106927042'
p1307
I1346
sS'3633091100'
p1308
I1124
sS'491496715'
p1309
I1126
sS'3122564522'
p1310
I1131
sS'3389773360'
p1311
I1350
sS'1213744330'
p1312
I1351
sS'2304075585'
p1313
I386
sS'4192733318'
p1314
I1354
sS'605903903'
p1315
I1355
sS'3464961116'
p1316
I1356
sS'1049843964'
p1317
I220
sS'2255113076'
p1318
I2493
sS'771577243'
p1319
I1359
sS'2667658189'
p1320
I1360
sS'1000066358'
p1321
I1361
sS'3239836164'
p1322
I1362
sS'3818876690'
p1323
I1195
sS'2543824082'
p1324
I2494
sS'1875891307'
p1325
I1365
sS'338395830'
p1326
I1366
sS'2718796148'
p1327
I1367
sS'2887634332'
p1328
I1368
sS'2317630684'
p1329
I1369
sS'1898427878'
p1330
I1370
sS'1615717851'
p1331
I1371
sS'2616577596'
p1332
I1372
sS'2507955484'
p1333
I1373
sS'1433939064'
p1334
I1375
sS'2937936158'
p1335
I1265
sS'1967689783'
p1336
I1268
sS'1060988803'
p1337
I1378
sS'2925400415'
p1338
I1379
sS'344313409'
p1339
I1380
sS'1392332761'
p1340
I1381
sS'743008535'
p1341
I2498
sS'3434508639'
p1342
I1383
sS'2524220101'
p1343
I1386
sS'3224203982'
p1344
I1387
sS'1266271629'
p1345
I1393
sS'1038960564'
p1346
I1389
sS'2764881224'
p1347
I1390
sS'1651844876'
p1348
I1394
sS'4041015401'
p1349
I1392
sS'1294883948'
p1350
I1388
sS'1236967132'
p1351
I1391
sS'3272389348'
p1352
I1395
sS'2134808475'
p1353
I1396
sS'555384690'
p1354
I1397
sS'4285564534'
p1355
I1398
sS'4207448575'
p1356
I1399
sS'65801702'
p1357
I1400
sS'2477144867'
p1358
I1401
sS'395305791'
p1359
I3083
sS'1169270868'
p1360
I1403
sS'1027250316'
p1361
I1404
sS'4066782471'
p1362
I1405
sS'1171363794'
p1363
I1406
sS'2034510440'
p1364
I1407
sS'917421982'
p1365
I1408
sS'2196976878'
p1366
I1409
sS'4053603391'
p1367
I837
sS'1776192'
p1368
I192
sS'3657701087'
p1369
I1412
sS'2070073073'
p1370
I1413
sS'2692979972'
p1371
I1414
sS'1476956307'
p1372
I1415
sS'1404395751'
p1373
I3085
sS'246547106'
p1374
I1417
sS'1565310892'
p1375
I446
sS'596044827'
p1376
I2583
sS'2616219713'
p1377
I1420
sS'717731951'
p1378
I2197
sS'350964414'
p1379
I1422
sS'166685992'
p1380
I1423
sS'3240223983'
p1381
I2650
sS'1491636315'
p1382
I1424
sS'2260760754'
p1383
I1425
sS'1834677339'
p1384
I114
sS'1191714842'
p1385
I1427
sS'1349737346'
p1386
I1428
sS'2528161539'
p1387
I3120
sS'2589452714'
p1388
I1429
sS'38985694'
p1389
I1430
sS'2069145631'
p1390
I1431
sS'779605206'
p1391
I1432
sS'2315042356'
p1392
I1433
sS'2746088407'
p1393
I1933
sS'4058274528'
p1394
I1435
sS'3122183291'
p1395
I1436
sS'1080002133'
p1396
I1437
sS'2415400273'
p1397
I1438
sS'4178291537'
p1398
I1934
sS'15469418'
p1399
I1440
sS'562786011'
p1400
I1441
sS'4101519751'
p1401
I1442
sS'1941301893'
p1402
I1443
sS'253594379'
p1403
I1444
sS'4085088124'
p1404
I1445
sS'1174924783'
p1405
I1446
sS'4063804162'
p1406
I1447
sS'2878125264'
p1407
I723
sS'1996518567'
p1408
I1449
sS'2252845148'
p1409
I1450
sS'1618153505'
p1410
I1451
sS'2197210107'
p1411
I1452
sS'617013723'
p1412
I1453
sS'3109949526'
p1413
I2402
sS'3035853030'
p1414
I2746
sS'2238460219'
p1415
I1455
sS'620761021'
p1416
I1457
sS'2382789871'
p1417
I1458
sS'2848778083'
p1418
I1459
sS'1107746429'
p1419
I1460
sS'2845673972'
p1420
I1461
sS'3996979962'
p1421
I1462
sS'2461816241'
p1422
I1463
sS'2097638279'
p1423
I1464
sS'3096870348'
p1424
I1465
sS'3078024483'
p1425
I1466
sS'2328965162'
p1426
I1411
sS'2207460362'
p1427
I1468
sS'1554993130'
p1428
I1469
sS'2157224192'
p1429
I1470
sS'1980915793'
p1430
I1471
sS'2711152367'
p1431
I1472
sS'3493543279'
p1432
I1473
sS'3803199563'
p1433
I1474
sS'691612308'
p1434
I1941
sS'1336715369'
p1435
I1476
sS'1793590520'
p1436
I1477
sS'1039053975'
p1437
I1478
sS'2796038131'
p1438
I1479
sS'2657081799'
p1439
I1480
sS'885331957'
p1440
I1481
sS'3271027231'
p1441
I1483
sS'1544526064'
p1442
I1484
sS'3251840412'
p1443
I1485
sS'3421486832'
p1444
I1486
sS'2231607096'
p1445
I1487
sS'3818890017'
p1446
I1488
sS'2731543010'
p1447
I1489
sS'875145825'
p1448
I2878
sS'613747359'
p1449
I1490
sS'1977271538'
p1450
I1491
sS'403467810'
p1451
I1492
sS'3245671824'
p1452
I1493
sS'1826584692'
p1453
I1494
sS'1544786140'
p1454
I1495
sS'1747471686'
p1455
I1418
sS'606767550'
p1456
I1497
sS'3887899389'
p1457
I1498
sS'1524886161'
p1458
I1499
sS'2884249863'
p1459
I1500
sS'567820539'
p1460
I1501
sS'3636724939'
p1461
I1502
sS'3312901615'
p1462
I1503
sS'4006103510'
p1463
I1504
sS'2672443109'
p1464
I1505
sS'2673355078'
p1465
I1506
sS'1890962723'
p1466
I1507
sS'1553019839'
p1467
I2659
sS'2980760895'
p1468
I1509
sS'3419376657'
p1469
I1510
sS'3882784583'
p1470
I1511
sS'2954540407'
p1471
I1512
sS'2624413719'
p1472
I2522
sS'1122537977'
p1473
I1806
sS'564641393'
p1474
I1514
sS'3570943696'
p1475
I2523
sS'3661711486'
p1476
I1516
sS'2787327616'
p1477
I1517
sS'909725785'
p1478
I1518
sS'2095393247'
p1479
I1519
sS'490500468'
p1480
I1520
sS'3275450415'
p1481
I1521
sS'4165509784'
p1482
I1522
sS'4167954255'
p1483
I1523
sS'1210507520'
p1484
I1524
sS'962338748'
p1485
I1467
sS'782865887'
p1486
I507
sS'1809934947'
p1487
I1527
sS'364700925'
p1488
I1528
sS'2659357596'
p1489
I1529
sS'4140744216'
p1490
I1530
sS'521412534'
p1491
I1531
sS'3357589225'
p1492
I1532
sS'504326263'
p1493
I246
sS'1045779976'
p1494
I1534
sS'3104132371'
p1495
I1535
sS'3969445925'
p1496
I1536
sS'50457238'
p1497
I2528
sS'4262496040'
p1498
I1538
sS'500590864'
p1499
I608
sS'2463413235'
p1500
I1540
sS'1583577411'
p1501
I1541
sS'631446479'
p1502
I1542
sS'3814621161'
p1503
I1544
sS'2852759815'
p1504
I3104
sS'1879197141'
p1505
I1546
sS'1920804065'
p1506
I1547
sS'1756431678'
p1507
I1548
sS'3151067532'
p1508
I1549
sS'2298623317'
p1509
I1550
sS'2401692695'
p1510
I1551
sS'1415268912'
p1511
I1552
sS'2300457037'
p1512
I1554
sS'1583772039'
p1513
I1555
sS'1575020018'
p1514
I1556
sS'3310268237'
p1515
I1557
sS'3861090052'
p1516
I1558
sS'322814221'
p1517
I1559
sS'3044012'
p1518
I1560
sS'1030441254'
p1519
I1561
sS'1066372954'
p1520
I399
sS'393035612'
p1521
I1563
sS'1438134738'
p1522
I1564
sS'4108811510'
p1523
I3383
sS'3488552280'
p1524
I1565
sS'441120644'
p1525
I1566
sS'1948945052'
p1526
I1567
sS'639250885'
p1527
I1990
sS'952121162'
p1528
I1568
sS'1733597545'
p1529
I1426
sS'439507113'
p1530
I1570
sS'3141188020'
p1531
I1571
sS'1737429301'
p1532
I1572
sS'3837379530'
p1533
I1573
sS'1710009181'
p1534
I1574
sS'2650571118'
p1535
I2510
sS'192951763'
p1536
I1576
sS'2643058163'
p1537
I1577
sS'825875823'
p1538
I1578
sS'3973406086'
p1539
I1579
sS'3475233110'
p1540
I1580
sS'2903662804'
p1541
I1581
sS'3536262323'
p1542
I1582
sS'2162037984'
p1543
I1583
sS'1582474481'
p1544
I1584
sS'2282893903'
p1545
I1585
sS'629450757'
p1546
I1385
sS'2761872404'
p1547
I1587
sS'1735204308'
p1548
I1588
sS'4032639394'
p1549
I1589
sS'460608021'
p1550
I1590
sS'26389537'
p1551
I2693
sS'443931185'
p1552
I1591
sS'2890295436'
p1553
I1592
sS'2287508577'
p1554
I1593
sS'3531604778'
p1555
I1594
sS'3156280563'
p1556
I1595
sS'836256116'
p1557
I1596
sS'1815238419'
p1558
I1597
sS'948275186'
p1559
I1598
sS'2163304477'
p1560
I1599
sS'3278092752'
p1561
I1600
sS'4002956902'
p1562
I1601
sS'898118729'
p1563
I1602
sS'1319081165'
p1564
I1603
sS'776020237'
p1565
I1604
sS'814715283'
p1566
I1605
sS'2291127237'
p1567
I1606
sS'2030247174'
p1568
I1607
sS'3627421819'
p1569
I1608
sS'2497554543'
p1570
I2865
sS'1315208123'
p1571
I1610
sS'3719137321'
p1572
I1611
sS'2799869027'
p1573
I1612
sS'1518400220'
p1574
I1613
sS'2652071763'
p1575
I1614
sS'588243849'
p1576
I1615
sS'1541756008'
p1577
I1616
sS'2184501135'
p1578
I1617
sS'1666288434'
p1579
I1618
sS'2980440229'
p1580
I1619
sS'1930913390'
p1581
I1620
sS'2436389418'
p1582
I1621
sS'247769793'
p1583
I1622
sS'3799854455'
p1584
I1623
sS'2350981164'
p1585
I3032
sS'1543396188'
p1586
I1624
sS'1132746796'
p1587
I3116
sS'4239920443'
p1588
I1626
sS'3436781566'
p1589
I1627
sS'2956786715'
p1590
I1628
sS'1607600653'
p1591
I1629
sS'3131909049'
p1592
I1630
sS'3925613292'
p1593
I673
sS'2614389627'
p1594
I1631
sS'975885955'
p1595
I1632
sS'4239616087'
p1596
I1633
sS'3505202339'
p1597
I1634
sS'20018153'
p1598
I3117
sS'279323206'
p1599
I1636
sS'3554343310'
p1600
I3253
sS'2493825465'
p1601
I1637
sS'754938428'
p1602
I1638
sS'95170590'
p1603
I1639
sS'2962725194'
p1604
I1640
sS'1566021834'
p1605
I1641
sS'3057886253'
p1606
I1642
sS'3311830643'
p1607
I1643
sS'2896196906'
p1608
I1644
sS'1374205441'
p1609
I1645
sS'3527940337'
p1610
I1646
sS'2512840473'
p1611
I1648
sS'3621549603'
p1612
I1649
sS'4286635694'
p1613
I1651
sS'3681459280'
p1614
I1972
sS'2187324082'
p1615
I2270
sS'3930126543'
p1616
I1654
sS'4089111119'
p1617
I1973
sS'3188730216'
p1618
I1656
sS'741804596'
p1619
I1657
sS'3839562998'
p1620
I1658
sS'670504249'
p1621
I1659
sS'538998251'
p1622
I1660
sS'1598750229'
p1623
I1661
sS'2827067982'
p1624
I1662
sS'528218683'
p1625
I1663
sS'3084096535'
p1626
I1664
sS'2752875123'
p1627
I1665
sS'1379130419'
p1628
I1666
sS'2071663365'
p1629
I1667
sS'3065586006'
p1630
I1668
sS'1733709559'
p1631
I1669
sS'1108471961'
p1632
I1670
sS'499079668'
p1633
I2553
sS'2815688436'
p1634
I1672
sS'3726154528'
p1635
I1673
sS'2138239477'
p1636
I1979
sS'294167146'
p1637
I2555
sS'3231004341'
p1638
I1676
sS'1549085270'
p1639
I2295
sS'3461518589'
p1640
I1677
sS'2946085732'
p1641
I1679
sS'2772609387'
p1642
I1680
sS'1161695480'
p1643
I1681
sS'840945029'
p1644
I1682
sS'3979215974'
p1645
I1683
sS'1417112446'
p1646
I1684
sS'2485670452'
p1647
I1685
sS'3842862938'
p1648
I1686
sS'2877985693'
p1649
I1210
sS'1792619547'
p1650
I1688
sS'3117046697'
p1651
I1689
sS'3810123859'
p1652
I1690
sS'1258447015'
p1653
I1691
sS'3877440809'
p1654
I1692
sS'3220841218'
p1655
I1693
sS'3289417890'
p1656
I1694
sS'580008340'
p1657
I1695
sS'1803816912'
p1658
I1697
sS'1138996450'
p1659
I1698
sS'3245391379'
p1660
I1701
sS'2916716118'
p1661
I1984
sS'1292417817'
p1662
I1702
sS'3350877536'
p1663
I1703
sS'326930040'
p1664
I1704
sS'4180930546'
p1665
I1705
sS'1018886228'
p1666
I2890
sS'990496397'
p1667
I1707
sS'2098552598'
p1668
I1708
sS'1037260580'
p1669
I1709
sS'397493741'
p1670
I1710
sS'545289514'
p1671
I1712
sS'3560210941'
p1672
I1713
sS'4197193550'
p1673
I1714
sS'3730114567'
p1674
I1715
sS'1826190863'
p1675
I2331
sS'3866177358'
p1676
I1716
sS'662608699'
p1677
I1717
sS'2485680197'
p1678
I1718
sS'2978622176'
p1679
I1719
sS'603763318'
p1680
I1720
sS'3330927216'
p1681
I1721
sS'511678471'
p1682
I1722
sS'392706219'
p1683
I1723
sS'1697658257'
p1684
I1724
sS'1815513076'
p1685
I56
sS'3862811674'
p1686
I1727
sS'4284267710'
p1687
I808
sS'3877652693'
p1688
I1729
sS'3503737307'
p1689
I1730
sS'2916559717'
p1690
I1731
sS'1160148526'
p1691
I1732
sS'533051511'
p1692
I122
sS'50521271'
p1693
I1734
sS'4118821425'
p1694
I1735
sS'4137863751'
p1695
I1737
sS'1640786388'
p1696
I1738
sS'1625530935'
p1697
I1740
sS'1239364869'
p1698
I161
sS'1890318514'
p1699
I1742
sS'1201984883'
p1700
I1743
sS'1287353407'
p1701
I202
sS'1661089307'
p1702
I205
sS'875823959'
p1703
I1746
sS'2105308456'
p1704
I1747
sS'3597496510'
p1705
I1748
sS'127904873'
p1706
I1749
sS'3205024967'
p1707
I1750
sS'320000323'
p1708
I735
sS'3269471699'
p1709
I254
sS'4156731925'
p1710
I1752
sS'455279111'
p1711
I1753
sS'2023721073'
p1712
I1754
sS'608310969'
p1713
I1755
sS'3188496109'
p1714
I292
sS'2217177799'
p1715
I1757
sS'98054194'
p1716
I1758
sS'2456225582'
p1717
I1759
sS'3292004587'
p1718
I1760
sS'3052191172'
p1719
I3138
sS'1292184871'
p1720
I1762
sS'4136255266'
p1721
I1337
sS'2318415276'
p1722
I1764
sS'3362701480'
p1723
I1766
sS'4200601044'
p1724
I1768
sS'4278168842'
p1725
I1769
sS'454881517'
p1726
I373
sS'3138635490'
p1727
I1771
sS'1048933817'
p1728
I1772
sS'2987144847'
p1729
I1773
sS'2396187234'
p1730
I1774
sS'3816191065'
p1731
I1775
sS'3147626282'
p1732
I1776
sS'1597392855'
p1733
I2877
sS'1701323236'
p1734
I2580
sS'2537288678'
p1735
I1778
sS'1127657981'
p1736
I1780
sS'2573722639'
p1737
I463
sS'3934266336'
p1738
I1782
sS'3563882371'
p1739
I1783
sS'508837021'
p1740
I1784
sS'4264591455'
p1741
I488
sS'3863123259'
p1742
I2950
sS'3433923309'
p1743
I1786
sS'1821733300'
p1744
I1787
sS'1821206755'
p1745
I307
sS'535350558'
p1746
I1789
sS'4210131689'
p1747
I1790
sS'2272634729'
p1748
I1999
sS'3144716827'
p1749
I1792
sS'1341260655'
p1750
I1793
sS'3526927399'
p1751
I549
sS'1487498370'
p1752
I554
sS'2169945834'
p1753
I1796
sS'1325976285'
p1754
I2024
sS'853126462'
p1755
I1798
sS'3692641931'
p1756
I1799
sS'3671028639'
p1757
I1454
sS'3408810544'
p1758
I1801
sS'934944362'
p1759
I1802
sS'2449307177'
p1760
I1803
sS'943483502'
p1761
I2001
sS'1515828822'
p1762
I1804
sS'684722612'
p1763
I1805
sS'2275600529'
p1764
I1276
sS'2056616898'
p1765
I1807
sS'903486144'
p1766
I1808
sS'3669048335'
p1767
I1809
sS'4022287072'
p1768
I1810
sS'2282257791'
p1769
I619
sS'567536219'
p1770
I1812
sS'73830292'
p1771
I3145
sS'423256429'
p1772
I1814
sS'3065645152'
p1773
I1815
sS'3391248744'
p1774
I654
sS'2171200902'
p1775
I659
sS'1703748926'
p1776
I661
sS'489170488'
p1777
I2503
sS'4079159663'
p1778
I1819
sS'2488849942'
p1779
I1820
sS'2873615520'
p1780
I1821
sS'2726466130'
p1781
I1822
sS'1107615001'
p1782
I1823
sS'3093978794'
p1783
I1824
sS'3133126031'
p1784
I1767
sS'757499642'
p1785
I1826
sS'721089780'
p1786
I1827
sS'1953913885'
p1787
I1828
sS'848363602'
p1788
I1829
sS'3005325737'
p1789
I763
sS'873272013'
p1790
I1832
sS'516841937'
p1791
I1833
sS'354026608'
p1792
I1834
sS'3053992683'
p1793
I1835
sS'1117272184'
p1794
I1836
sS'1855201342'
p1795
I1085
sS'3063570853'
p1796
I1838
sS'1781308359'
p1797
I789
sS'3216203623'
p1798
I794
sS'1210853041'
p1799
I3150
sS'522776668'
p1800
I1842
sS'3838037746'
p1801
I1843
sS'3043291654'
p1802
I1844
sS'2141063849'
p1803
I1845
sS'2762021126'
p1804
I687
sS'912344156'
p1805
I1847
sS'1013893828'
p1806
I1848
sS'713380351'
p1807
I1849
sS'3913824397'
p1808
I475
sS'1615336827'
p1809
I1851
sS'70152834'
p1810
I2595
sS'1233774081'
p1811
I1853
sS'1804164018'
p1812
I883
sS'2668221937'
p1813
I1855
sS'3271072939'
p1814
I1856
sS'1449803596'
p1815
I1857
sS'1130900979'
p1816
I1858
sS'2957525159'
p1817
I1859
sS'67355582'
p1818
I1860
sS'661907327'
p1819
I1862
sS'436392678'
p1820
I1741
sS'1000957666'
p1821
I1781
sS'1954960931'
p1822
I1865
sS'1437617088'
p1823
I1866
sS'2334852679'
p1824
I320
sS'4170453600'
p1825
I1868
sS'502787831'
p1826
I969
sS'3616798795'
p1827
I1870
sS'852034251'
p1828
I1871
sS'4007974189'
p1829
I989
sS'2034718190'
p1830
I1873
sS'2296487275'
p1831
I1874
sS'1540524189'
p1832
I1875
sS'648889363'
p1833
I1876
sS'1111951186'
p1834
I3234
sS'801374963'
p1835
I1012
sS'4044018474'
p1836
I1779
sS'2490302160'
p1837
I1880
sS'476865227'
p1838
I1047
sS'2041677127'
p1839
I1882
sS'215509633'
p1840
I1883
sS'2233024749'
p1841
I1884
sS'3290663177'
p1842
I1995
sS'2837984655'
p1843
I1885
sS'3732091250'
p1844
I1111
sS'3188659428'
p1845
I1888
sS'467001379'
p1846
I3096
sS'469837401'
p1847
I1889
sS'43826519'
p1848
I3130
sS'892435980'
p1849
I1890
sS'3956190115'
p1850
I1891
sS'3415673411'
p1851
I1892
sS'2265899995'
p1852
I1893
sS'168764910'
p1853
I1894
sS'304983697'
p1854
I328
sS'2106955961'
p1855
I1896
sS'3640843993'
p1856
I1897
sS'453809966'
p1857
I1898
sS'4227630018'
p1858
I1900
sS'687595500'
p1859
I3146
sS'3389539441'
p1860
I1901
sS'601185173'
p1861
I1902
sS'3035907343'
p1862
I2476
sS'677676622'
p1863
I1903
sS'3828329584'
p1864
I1904
sS'659725808'
p1865
I2473
sS'441391794'
p1866
I1907
sS'486884397'
p1867
I1908
sS'3482692814'
p1868
I1291
sS'848730816'
p1869
I3162
sS'2242768450'
p1870
I1911
sS'3986539301'
p1871
I1912
sS'2774351000'
p1872
I1913
sS'1356079140'
p1873
I1914
sS'1890732196'
p1874
I1915
sS'2858760089'
p1875
I2077
sS'3270633490'
p1876
I1916
sS'3427391302'
p1877
I1917
sS'1258740073'
p1878
I1837
sS'770336801'
p1879
I1918
sS'3963277827'
p1880
I1919
sS'3866909611'
p1881
I1920
sS'2223714757'
p1882
I1921
sS'2493952533'
p1883
I1922
sS'508282809'
p1884
I1924
sS'166773493'
p1885
I1925
sS'2683024755'
p1886
I1927
sS'2033945746'
p1887
I1928
sS'932480867'
p1888
I1929
sS'283716061'
p1889
I1930
sS'547476091'
p1890
I1931
sS'1959697351'
p1891
I1932
sS'648931301'
p1892
I1434
sS'2413089165'
p1893
I1439
sS'1116289197'
p1894
I1935
sS'2624862533'
p1895
I1937
sS'3600455391'
p1896
I1938
sS'2316950688'
p1897
I1939
sS'2795891642'
p1898
I207
sS'4036877181'
p1899
I1475
sS'4239378941'
p1900
I3168
sS'3395257600'
p1901
I1942
sS'3279257076'
p1902
I1943
sS'2434848920'
p1903
I1650
sS'3123500032'
p1904
I1945
sS'2202079852'
p1905
I1946
sS'1959500556'
p1906
I1384
sS'3037654114'
p1907
I1948
sS'1539795814'
p1908
I1949
sS'562762742'
p1909
I1950
sS'1094788037'
p1910
I1951
sS'4047690519'
p1911
I1952
sS'2571348801'
p1912
I2531
sS'689961313'
p1913
I3050
sS'3357905099'
p1914
I1953
sS'2823307221'
p1915
I1954
sS'2630238456'
p1916
I1955
sS'3421026299'
p1917
I1956
sS'3922819697'
p1918
I1957
sS'3474033611'
p1919
I1958
sS'3096946503'
p1920
I1959
sS'1039126403'
p1921
I2922
sS'2635547119'
p1922
I1960
sS'2949537983'
p1923
I1961
sS'1378077886'
p1924
I1962
sS'1427469971'
p1925
I1963
sS'3761533297'
p1926
I1964
sS'709445936'
p1927
I1965
sS'2839339716'
p1928
I1496
sS'2803741841'
p1929
I1967
sS'1507405031'
p1930
I3173
sS'4224531010'
p1931
I1969
sS'3577629547'
p1932
I1970
sS'2857166402'
p1933
I1971
sS'2056169186'
p1934
I1652
sS'3897720034'
p1935
I1655
sS'4236087068'
p1936
I1974
sS'2856937853'
p1937
I2032
sS'990507785'
p1938
I1976
sS'1428101175'
p1939
I1977
sS'2123040565'
p1940
I1978
sS'2469046391'
p1941
I1674
sS'3282509573'
p1942
I1980
sS'81053968'
p1943
I1981
sS'249577815'
p1944
I3175
sS'1949308966'
p1945
I1983
sS'1063337028'
p1946
I1947
sS'2522377610'
p1947
I1562
sS'2940390801'
p1948
I2035
sS'3625917937'
p1949
I1986
sS'3697799491'
p1950
I1987
sS'3360609244'
p1951
I1988
sS'398134674'
p1952
I1989
sS'57783108'
p1953
I1341
sS'221717938'
p1954
I1013
sS'3344502842'
p1955
I1992
sS'2572315833'
p1956
I3013
sS'1027602768'
p1957
I1993
sS'1489351479'
p1958
I1994
sS'1452921099'
p1959
I1966
sS'351713549'
p1960
I1997
sS'2928822295'
p1961
I1998
sS'915901561'
p1962
I1791
sS'1067164735'
p1963
I2000
sS'869017322'
p1964
I1991
sS'3031311007'
p1965
I1135
sS'865750173'
p1966
I2622
sS'16454810'
p1967
I2005
sS'1295003824'
p1968
I2006
sS'2057625114'
p1969
I2040
sS'1571490313'
p1970
I2007
sS'3286878858'
p1971
I2008
sS'4278102337'
p1972
I1861
sS'1716727029'
p1973
I2010
sS'261990895'
p1974
I2011
sS'2813858112'
p1975
I2012
sS'3221545220'
p1976
I1320
sS'2766443755'
p1977
I2042
sS'2378242378'
p1978
I2015
sS'182290053'
p1979
I2016
sS'2156846040'
p1980
I2017
sS'1829290442'
p1981
I2018
sS'3702967330'
p1982
I2019
sS'3850209583'
p1983
I2020
sS'160071273'
p1984
I1895
sS'645859586'
p1985
I1940
sS'2195608251'
p1986
I2023
sS'308413891'
p1987
I2025
sS'2233880590'
p1988
I2026
sS'2223139042'
p1989
I2027
sS'2619163162'
p1990
I2626
sS'4220962429'
p1991
I2030
sS'1680807465'
p1992
I3182
sS'384269001'
p1993
I1975
sS'485626279'
p1994
I2033
sS'3659421361'
p1995
I2034
sS'3395187066'
p1996
I1985
sS'1072640827'
p1997
I987
sS'4247824186'
p1998
I1926
sS'233871977'
p1999
I2038
sS'3044948713'
p2000
I2039
sS'227629516'
p2001
I515
sS'3377526627'
p2002
I1419
sS'1275857085'
p2003
I2009
sS'3926213876'
p2004
I2014
sS'1641960627'
p2005
I2043
sS'1342404851'
p2006
I2044
sS'964607716'
p2007
I2046
sS'2723513568'
p2008
I2047
sS'3347075701'
p2009
I3034
sS'1342961341'
p2010
I2048
sS'3970477206'
p2011
I2049
sS'662922355'
p2012
I2050
sS'4078937413'
p2013
I2051
sS'2841225823'
p2014
I2052
sS'2346084629'
p2015
I1575
sS'1838926600'
p2016
I3185
sS'1228133573'
p2017
I2055
sS'1426944148'
p2018
I2056
sS'3838242688'
p2019
I2057
sS'2393678699'
p2020
I2058
sS'465739517'
p2021
I1905
sS'2621463744'
p2022
I2060
sS'3502990892'
p2023
I2061
sS'2727600790'
p2024
I2062
sS'1185909505'
p2025
I2063
sS'4084719479'
p2026
I2064
sS'3515391844'
p2027
I2065
sS'592689052'
p2028
I2066
sS'2651959030'
p2029
I2067
sS'2610662061'
p2030
I2068
sS'2128672319'
p2031
I2069
sS'4104928393'
p2032
I2070
sS'88554519'
p2033
I2071
sS'840865386'
p2034
I2072
sS'491792092'
p2035
I2815
sS'1162467941'
p2036
I2073
sS'1959680039'
p2037
I2074
sS'384932005'
p2038
I2075
sS'2954668845'
p2039
I2076
sS'3308369328'
p2040
I6
sS'1919684252'
p2041
I714
sS'1586029420'
p2042
I2079
sS'4176372154'
p2043
I2080
sS'4291083982'
p2044
I2081
sS'132341149'
p2045
I3079
sS'439279583'
p2046
I2082
sS'3663559651'
p2047
I2083
sS'700438783'
p2048
I1839
sS'2024760795'
p2049
I2085
sS'1767855106'
p2050
I2086
sS'3635935632'
p2051
I2087
sS'900914043'
p2052
I2088
sS'3953805126'
p2053
I2325
sS'1000773879'
p2054
I2091
sS'1754904960'
p2055
I2092
sS'589199943'
p2056
I2093
sS'853658665'
p2057
I2094
sS'516201949'
p2058
I2095
sS'4202081674'
p2059
I2096
sS'4168402703'
p2060
I2097
sS'2609061039'
p2061
I2098
sS'1354120181'
p2062
I2099
sS'2524494796'
p2063
I2100
sS'3834320657'
p2064
I2101
sS'1724694030'
p2065
I2102
sS'607394331'
p2066
I2103
sS'3408163802'
p2067
I2104
sS'3611774179'
p2068
I2105
sS'2998686163'
p2069
I2106
sS'422699736'
p2070
I2107
sS'4176403253'
p2071
I2108
sS'2193694254'
p2072
I2639
sS'1090447281'
p2073
I2110
sS'2990855864'
p2074
I2111
sS'4133514703'
p2075
I2112
sS'4122118697'
p2076
I2113
sS'4039039716'
p2077
I2114
sS'3841682652'
p2078
I2115
sS'77627621'
p2079
I2116
sS'1073188652'
p2080
I1696
sS'4042141985'
p2081
I2118
sS'2326463380'
p2082
I2119
sS'1528971092'
p2083
I2120
sS'925496510'
p2084
I2122
sS'2456120224'
p2085
I358
sS'445442743'
p2086
I3195
sS'2817061625'
p2087
I2125
sS'2480747202'
p2088
I369
sS'2343176131'
p2089
I2127
sS'3261535803'
p2090
I2128
sS'1459241748'
p2091
I2059
sS'1197154185'
p2092
I2129
sS'3376988073'
p2093
I2130
sS'431992802'
p2094
I2643
sS'3790591028'
p2095
I2132
sS'680402144'
p2096
I2133
sS'1531339765'
p2097
I2134
sS'3253822509'
p2098
I2136
sS'3725766398'
p2099
I3235
sS'193113796'
p2100
I2137
sS'2838808644'
p2101
I2138
sS'1849546291'
p2102
I2139
sS'880096064'
p2103
I2140
sS'4269216118'
p2104
I2141
sS'2910006718'
p2105
I2142
sS'1236336671'
p2106
I2143
sS'1214006960'
p2107
I2144
sS'3358691318'
p2108
I2145
sS'536673024'
p2109
I2146
sS'2937549539'
p2110
I1765
sS'3798708300'
p2111
I2148
sS'1232677153'
p2112
I3201
sS'2105508317'
p2113
I2149
sS'2849111044'
p2114
I1553
sS'4125376571'
p2115
I2151
sS'333508463'
p2116
I2152
sS'2179358539'
p2117
I2153
sS'486162423'
p2118
I2154
sS'1926859556'
p2119
I2155
sS'158531231'
p2120
I136
sS'2194245277'
p2121
I2157
sS'2191468400'
p2122
I2158
sS'3282478477'
p2123
I2159
sS'3791989238'
p2124
I2160
sS'2689941153'
p2125
I2647
sS'3047819005'
p2126
I2162
sS'296271448'
p2127
I3204
sS'719203242'
p2128
I2164
sS'3676872343'
p2129
I2165
sS'47659843'
p2130
I2166
sS'3693095617'
p2131
I2167
sS'2127416756'
p2132
I2168
sS'1579613783'
p2133
I2169
sS'3699893563'
p2134
I2172
sS'65116502'
p2135
I2173
sS'673356819'
p2136
I2174
sS'3937992703'
p2137
I2175
sS'4222590338'
p2138
I2176
sS'3968108639'
p2139
I1739
sS'3338007773'
p2140
I194
sS'395260483'
p2141
I1525
sS'1876906939'
p2142
I2178
sS'1931818423'
p2143
I2179
sS'93148987'
p2144
I2090
sS'968336394'
p2145
I2181
sS'1339315323'
p2146
I2182
sS'2787637778'
p2147
I2183
sS'3642118045'
p2148
I1543
sS'3975666608'
p2149
I1526
sS'3618985332'
p2150
I2186
sS'3929074393'
p2151
I2187
sS'4152805025'
p2152
I2976
sS'2361587577'
p2153
I2188
sS'1594431230'
p2154
I2189
sS'1684440449'
p2155
I2190
sS'3194014105'
p2156
I2191
sS'2658254174'
p2157
I2192
sS'3474900298'
p2158
I2193
sS'447504709'
p2159
I2194
sS'3734822391'
p2160
I299
sS'3964170614'
p2161
I2196
sS'128723876'
p2162
I392
sS'3212760933'
p2163
I2199
sS'2247085544'
p2164
I2200
sS'2337182196'
p2165
I2201
sS'487468823'
p2166
I2202
sS'194257626'
p2167
I2203
sS'3779883288'
p2168
I3125
sS'3227661980'
p2169
I2045
sS'3205053921'
p2170
I2205
sS'1847477018'
p2171
I2206
sS'491840802'
p2172
I2207
sS'3074133478'
p2173
I2208
sS'3527556791'
p2174
I3099
sS'3333431092'
p2175
I1198
sS'1578153876'
p2176
I2210
sS'1933513142'
p2177
I2211
sS'118243744'
p2178
I2212
sS'4212518111'
p2179
I2213
sS'1644052705'
p2180
I2214
sS'3142327997'
p2181
I2215
sS'2463864814'
p2182
I2216
sS'3797537201'
p2183
I2218
sS'2927241033'
p2184
I2219
sS'998215810'
p2185
I2220
sS'2330978075'
p2186
I2221
sS'2661941135'
p2187
I520
sS'193158441'
p2188
I2224
sS'1788256739'
p2189
I2225
sS'813611885'
p2190
I2226
sS'3525941406'
p2191
I467
sS'1839455971'
p2192
I2229
sS'3849582471'
p2193
I2230
sS'2148913954'
p2194
I2231
sS'2500150280'
p2195
I2891
sS'901444265'
p2196
I2232
sS'2282422131'
p2197
I2233
sS'3617843828'
p2198
I2234
sS'35629376'
p2199
I2235
sS'587750031'
p2200
I2236
sS'1227878272'
p2201
I2237
sS'3511155378'
p2202
I2238
sS'354974889'
p2203
I2239
sS'2378234404'
p2204
I2240
sS'2931803878'
p2205
I2241
sS'869928463'
p2206
I2299
sS'2271075773'
p2207
I2242
sS'723110955'
p2208
I2243
sS'724483958'
p2209
I801
sS'1235578437'
p2210
I2245
sS'3285425249'
p2211
I2246
sS'2556133275'
p2212
I961
sS'1181399405'
p2213
I2248
sS'1085794659'
p2214
I2249
sS'2712018445'
p2215
I2250
sS'1520557068'
p2216
I2078
sS'1753157654'
p2217
I2252
sS'3071252660'
p2218
I1533
sS'929841430'
p2219
I2254
sS'2444012189'
p2220
I2579
sS'4205646791'
p2221
I2255
sS'2424565945'
p2222
I771
sS'341641838'
p2223
I2664
sS'1525918364'
p2224
I2256
sS'3498550995'
p2225
I2257
sS'2458068456'
p2226
I2665
sS'618927177'
p2227
I2259
sS'3452705349'
p2228
I2260
sS'97374877'
p2229
I2262
sS'840892479'
p2230
I2263
sS'1484078818'
p2231
I2529
sS'292529766'
p2232
I2266
sS'1022813953'
p2233
I2267
sS'3549860217'
p2234
I2268
sS'3815063730'
p2235
I2269
sS'3771702031'
p2236
I3005
sS'3601169721'
p2237
I1886
sS'4051807703'
p2238
I2272
sS'382550204'
p2239
I2273
sS'102981257'
p2240
I1539
sS'516353916'
p2241
I2275
sS'2740332932'
p2242
I2276
sS'1827991074'
p2243
I1647
sS'2336501033'
p2244
I2278
sS'589091561'
p2245
I2279
sS'3454909050'
p2246
I2280
sS'2668702555'
p2247
I88
sS'653909548'
p2248
I2282
sS'1462984861'
p2249
I2283
sS'210296799'
p2250
I2284
sS'3758003912'
p2251
I2285
sS'1290399197'
p2252
I1944
sS'2467409062'
p2253
I2286
sS'2116294822'
p2254
I129
sS'3507630779'
p2255
I2288
sS'1387635875'
p2256
I2121
sS'611791560'
p2257
I2084
sS'3384563138'
p2258
I2291
sS'2774418078'
p2259
I2292
sS'1873687001'
p2260
I2293
sS'4024104633'
p2261
I2294
sS'2340910122'
p2262
I204
sS'3471761709'
p2263
I2296
sS'3635047946'
p2264
I2297
sS'3536031836'
p2265
I2298
sS'1299218981'
p2266
I896
sS'2862718608'
p2267
I2300
sS'2246918838'
p2268
I2301
sS'2449767852'
p2269
I2302
sS'3228579807'
p2270
I2303
sS'2295726157'
p2271
I2304
sS'2842951963'
p2272
I2305
sS'2425859426'
p2273
I2306
sS'4171765566'
p2274
I2307
sS'794355051'
p2275
I2820
sS'3110482182'
p2276
I2308
sS'4146086354'
p2277
I295
sS'4141359923'
p2278
I2310
sS'513061191'
p2279
I2311
sS'4159459029'
p2280
I2312
sS'3970062925'
p2281
I341
sS'3799386472'
p2282
I345
sS'1141805584'
p2283
I2315
sS'75001773'
p2284
I2744
sS'1315245132'
p2285
I2317
sS'2062977016'
p2286
I2318
sS'236194065'
p2287
I2319
sS'851286067'
p2288
I2320
sS'1882344631'
p2289
I2321
sS'2124468398'
p2290
I384
sS'1952889698'
p2291
I390
sS'521893181'
p2292
I2324
sS'2281560980'
p2293
I2326
sS'4124005270'
p2294
I814
sS'92410554'
p2295
I2328
sS'517357553'
p2296
I2329
sS'736262792'
p2297
I2330
sS'121856257'
p2298
I434
sS'3979775182'
p2299
I438
sS'3778197718'
p2300
I2333
sS'3315282129'
p2301
I2334
sS'1946827878'
p2302
I2681
sS'1564238696'
p2303
I2337
sS'4122483286'
p2304
I2338
sS'738525400'
p2305
I2339
sS'1206686094'
p2306
I2340
sS'2488685741'
p2307
I2341
sS'3169024744'
p2308
I494
sS'3199685636'
p2309
I502
sS'4098063101'
p2310
I2348
sS'4138499822'
p2311
I512
sS'2332715028'
p2312
I2345
sS'3565456636'
p2313
I2346
sS'3582004219'
p2314
I2347
sS'2836886911'
p2315
I2037
sS'2275330810'
p2316
I2349
sS'2568724000'
p2317
I2350
sS'2874765790'
p2318
I2351
sS'2389097651'
p2319
I2352
sS'1551265824'
p2320
I2353
sS'4000106370'
p2321
I2354
sS'555631167'
p2322
I3012
sS'3382101856'
p2323
I2356
sS'4011347584'
p2324
I2357
sS'2473747678'
p2325
I2358
sS'4026656138'
p2326
I2359
sS'3825327054'
p2327
I2360
sS'4110409496'
p2328
I2361
sS'3893362486'
p2329
I2362
sS'3191592351'
p2330
I2363
sS'218125888'
p2331
I2364
sS'1164338332'
p2332
I2686
sS'4007830365'
p2333
I2366
sS'1169783448'
p2334
I2367
sS'2903534974'
p2335
I2368
sS'3645703035'
p2336
I2369
sS'355445705'
p2337
I2370
sS'3627636732'
p2338
I2372
sS'3244067756'
p2339
I3228
sS'14411090'
p2340
I2374
sS'761616937'
p2341
I2375
sS'424866781'
p2342
I2376
sS'4019376868'
p2343
I2377
sS'4062975904'
p2344
I694
sS'1069507870'
p2345
I2379
sS'2869467989'
p2346
I702
sS'1616063518'
p2347
I2381
sS'1718898264'
p2348
I2382
sS'1766663257'
p2349
I726
sS'344906444'
p2350
I2384
sS'3038024163'
p2351
I2385
sS'3677612174'
p2352
I740
sS'1747042580'
p2353
I2387
sS'332906681'
p2354
I2388
sS'3519404949'
p2355
I2389
sS'2833011810'
p2356
I1219
sS'109457319'
p2357
I2390
sS'3772044787'
p2358
I2391
sS'1220061846'
p2359
I2392
sS'378788595'
p2360
I2393
sS'1967928641'
p2361
I2394
sS'1298546667'
p2362
I2395
sS'386145959'
p2363
I2396
sS'2727221059'
p2364
I2397
sS'1008861493'
p2365
I2398
sS'1289434141'
p2366
I698
sS'571210795'
p2367
I2400
sS'2593484880'
p2368
I2415
sS'699877746'
p2369
I997
sS'2945726385'
p2370
I2403
sS'3988097489'
p2371
I897
sS'2275313265'
p2372
I2405
sS'2489551967'
p2373
I2407
sS'3765981467'
p2374
I895
sS'4261865653'
p2375
I2409
sS'1794241017'
p2376
I2410
sS'2681199273'
p2377
I2412
sS'1793056891'
p2378
I907
sS'1912698965'
p2379
I910
sS'1323529412'
p2380
I2416
sS'2604497840'
p2381
I2417
sS'3406326706'
p2382
I2418
sS'866032649'
p2383
I3373
sS'3120509854'
p2384
I2419
sS'1856999246'
p2385
I2420
sS'4186528243'
p2386
I2421
sS'4063184029'
p2387
I979
sS'3655365717'
p2388
I2423
sS'3504868122'
p2389
I2424
sS'1069845555'
p2390
I988
sS'2217853337'
p2391
I2426
sS'2343731867'
p2392
I2427
sS'3513865352'
p2393
I2428
sS'413292015'
p2394
I2429
sS'682630586'
p2395
I2430
sS'3276463946'
p2396
I3239
sS'2069616722'
p2397
I2432
sS'458389001'
p2398
I2433
sS'3898478698'
p2399
I2434
sS'2151293979'
p2400
I2435
sS'3607672432'
p2401
I2436
sS'3418659271'
p2402
I2437
sS'651258472'
p2403
I1032
sS'374464774'
p2404
I1037
sS'2680823346'
p2405
I2440
sS'3614158257'
p2406
I2442
sS'1571871667'
p2407
I1051
sS'237595480'
p2408
I2444
sS'331982192'
p2409
I1061
sS'1350285710'
p2410
I2446
sS'4136285322'
p2411
I2447
sS'2162567305'
p2412
I2448
sS'3054205479'
p2413
I2449
sS'1061545438'
p2414
I3242
sS'2874546310'
p2415
I1086
sS'3681580730'
p2416
I2452
sS'1060747655'
p2417
I1095
sS'1747573617'
p2418
I2455
sS'3481743878'
p2419
I2456
sS'4088211339'
p2420
I2457
sS'3299562450'
p2421
I1116
sS'1000293064'
p2422
I2459
sS'1354531726'
p2423
I2460
sS'310296684'
p2424
I2461
sS'527523423'
p2425
I2462
sS'1823716058'
p2426
I2463
sS'4159195102'
p2427
I2464
sS'3514195773'
p2428
I2465
sS'1420338074'
p2429
I2466
sS'3223915354'
p2430
I2467
sS'4005100950'
p2431
I2468
sS'432362044'
p2432
I2469
sS'507590029'
p2433
I2470
sS'38395056'
p2434
I2471
sS'2789880308'
p2435
I2472
sS'559905447'
p2436
I1233
sS'3297493554'
p2437
I2117
sS'1965944390'
p2438
I2475
sS'2798769441'
p2439
I1252
sS'433510318'
p2440
I2477
sS'2941044791'
p2441
I2478
sS'3924556291'
p2442
I2480
sS'3235544076'
p2443
I2481
sS'3175354507'
p2444
I2482
sS'971079958'
p2445
I2666
sS'1317057097'
p2446
I2483
sS'620032149'
p2447
I1290
sS'280410144'
p2448
I3265
sS'2164973127'
p2449
I2485
sS'3166414361'
p2450
I2486
sS'7336598'
p2451
I2487
sS'977456993'
p2452
I2488
sS'2356937947'
p2453
I2489
sS'1075126714'
p2454
I2490
sS'3256961152'
p2455
I2491
sS'1666085128'
p2456
I2492
sS'3284221169'
p2457
I1358
sS'4189881681'
p2458
I1364
sS'1612038297'
p2459
I2495
sS'4040322582'
p2460
I2496
sS'3709640639'
p2461
I2497
sS'2493566825'
p2462
I1382
sS'3200119975'
p2463
I2499
sS'3757671214'
p2464
I2500
sS'2452785645'
p2465
I2501
sS'1486465606'
p2466
I2502
sS'3626957091'
p2467
I1421
sS'3890676452'
p2468
I2504
sS'4051263407'
p2469
I2505
sS'3021174039'
p2470
I2506
sS'3387377708'
p2471
I2507
sS'3705805946'
p2472
I2508
sS'1549204000'
p2473
I2222
sS'2890467561'
p2474
I2511
sS'3908243396'
p2475
I2512
sS'3648621560'
p2476
I2513
sS'708262477'
p2477
I2514
sS'4244826201'
p2478
I2710
sS'3211179030'
p2479
I2516
sS'3617436869'
p2480
I2517
sS'460024134'
p2481
I2518
sS'2416484731'
p2482
I2519
sS'2129920319'
p2483
I2520
sS'3223036396'
p2484
I2521
sS'569826712'
p2485
I1513
sS'802688704'
p2486
I1515
sS'1999564447'
p2487
I2524
sS'568409249'
p2488
I2525
sS'4135593225'
p2489
I2526
sS'1761070733'
p2490
I2527
sS'3822987687'
p2491
I1537
sS'1941314046'
p2492
I1448
sS'1038182690'
p2493
I2530
sS'3110356955'
p2494
I1736
sS'3041705231'
p2495
I2532
sS'1115244043'
p2496
I2533
sS'1984545931'
p2497
I2534
sS'4046490355'
p2498
I2535
sS'2635883523'
p2499
I2228
sS'1240674478'
p2500
I2537
sS'2193664477'
p2501
I2538
sS'13301498'
p2502
I2539
sS'1560565543'
p2503
I2540
sS'3761442030'
p2504
I2541
sS'1289232847'
p2505
I327
sS'2436252940'
p2506
I2542
sS'1444113850'
p2507
I2543
sS'279699155'
p2508
I2544
sS'3766417922'
p2509
I2545
sS'2788859591'
p2510
I2546
sS'3198504537'
p2511
I2126
sS'1440749616'
p2512
I2547
sS'1068430193'
p2513
I2548
sS'4109397627'
p2514
I2549
sS'2156920475'
p2515
I2550
sS'3173136187'
p2516
I2551
sS'3680140922'
p2517
I2552
sS'3095718598'
p2518
I1671
sS'929368698'
p2519
I2554
sS'3064452030'
p2520
I1675
sS'1732120655'
p2521
I2556
sS'2018840392'
p2522
I1678
sS'1575376083'
p2523
I2558
sS'4018723397'
p2524
I2559
sS'3308173668'
p2525
I2560
sS'2269787345'
p2526
I1699
sS'639318962'
p2527
I2562
sS'309131167'
p2528
I2717
sS'3137272703'
p2529
I2564
sS'1667532620'
p2530
I2565
sS'3043278753'
p2531
I2566
sS'3990579831'
p2532
I2567
sS'1374956141'
p2533
I2568
sS'4185115186'
p2534
I1726
sS'1377585598'
p2535
I1017
sS'1785235519'
p2536
I2571
sS'915098649'
p2537
I2573
sS'178408585'
p2538
I2574
sS'275264384'
p2539
I2960
sS'2691223445'
p2540
I2575
sS'583119832'
p2541
I2576
sS'1338460474'
p2542
I2577
sS'3406478396'
p2543
I2578
sS'3467307298'
p2544
I1586
sS'2835299246'
p2545
I1777
sS'882525479'
p2546
I2581
sS'2417747893'
p2547
I2582
sS'1463717359'
p2548
I1797
sS'4101515763'
p2549
I2584
sS'3444786385'
p2550
I2585
sS'1805653308'
p2551
I1899
sS'1178274219'
p2552
I2587
sS'781002123'
p2553
I2588
sS'2495110802'
p2554
I2589
sS'2353444142'
p2555
I2590
sS'1084319722'
p2556
I2591
sS'1567499133'
p2557
I3197
sS'901207935'
p2558
I2592
sS'3505309324'
p2559
I316
sS'3769475875'
p2560
I24
sS'394596900'
p2561
I1852
sS'3481169628'
p2562
I2974
sS'1948333652'
p2563
I1872
sS'2590409583'
p2564
I2598
sS'3965529047'
p2565
I2599
sS'1244880349'
p2566
I2600
sS'507841367'
p2567
I2601
sS'400629571'
p2568
I2602
sS'80379054'
p2569
I2603
sS'3856015515'
p2570
I2604
sS'1095850255'
p2571
I873
sS'2499645933'
p2572
I2608
sS'3641159022'
p2573
I2609
sS'2895220130'
p2574
I2610
sS'1629404827'
p2575
I2611
sS'1071319145'
p2576
I2612
sS'2811661166'
p2577
I2613
sS'567534910'
p2578
I2614
sS'67249956'
p2579
I2615
sS'1078537007'
p2580
I2509
sS'2932861723'
p2581
I2616
sS'2440023887'
p2582
I2617
sS'743802819'
p2583
I2618
sS'2766269208'
p2584
I2619
sS'661151794'
p2585
I2327
sS'1949443459'
p2586
I2021
sS'3961511121'
p2587
I2620
sS'1648729660'
p2588
I2621
sS'1445882902'
p2589
I2004
sS'2288466976'
p2590
I2623
sS'3903245015'
p2591
I2624
sS'92401917'
p2592
I2625
sS'2278416805'
p2593
I2028
sS'1195601618'
p2594
I2627
sS'2610677742'
p2595
I2628
sS'2946269473'
p2596
I2629
sS'681010476'
p2597
I2630
sS'2609208135'
p2598
I2718
sS'240018991'
p2599
I2632
sS'3820521570'
p2600
I2633
sS'734292380'
p2601
I2634
sS'2536496919'
p2602
I2636
sS'2342735753'
p2603
I2637
sS'2504328739'
p2604
I2638
sS'4103923906'
p2605
I2109
sS'806246894'
p2606
I2640
sS'61814256'
p2607
I2641
sS'3798379681'
p2608
I2642
sS'2836858122'
p2609
I2131
sS'3298977709'
p2610
I2644
sS'3865016311'
p2611
I2645
sS'2985391759'
p2612
I2646
sS'4092048823'
p2613
I2161
sS'2081393559'
p2614
I2648
sS'3477857993'
p2615
I2649
sS'3594171699'
p2616
I2171
sS'2416491105'
p2617
I2651
sS'4087630383'
p2618
I2652
sS'4181452333'
p2619
I2653
sS'532589341'
p2620
I2654
sS'1894771602'
p2621
I2655
sS'156603823'
p2622
I2656
sS'30355949'
p2623
I2185
sS'1237612088'
p2624
I2657
sS'483141559'
p2625
I2658
sS'97062150'
p2626
I1609
sS'2160680517'
p2627
I2660
sS'591781953'
p2628
I2661
sS'2215389832'
p2629
I2662
sS'254874841'
p2630
I2635
sS'3722222609'
p2631
I2170
sS'3523009435'
p2632
I2258
sS'2116203935'
p2633
I2264
sS'2615377525'
p2634
I2667
sS'2371436573'
p2635
I2668
sS'80365330'
p2636
I2669
sS'183275855'
p2637
I2670
sS'4115365036'
p2638
I2671
sS'1256698929'
p2639
I2672
sS'427471768'
p2640
I2688
sS'2027353775'
p2641
I2674
sS'3709066919'
p2642
I2675
sS'1600931671'
p2643
I2676
sS'1879613707'
p2644
I2677
sS'3784315595'
p2645
I2678
sS'971572498'
p2646
I2679
sS'654235318'
p2647
I1269
sS'3199843944'
p2648
I2335
sS'4181468602'
p2649
I2682
sS'844324358'
p2650
I2683
sS'828445240'
p2651
I2684
sS'3026296984'
p2652
I2685
sS'3081802439'
p2653
I2365
sS'2860912043'
p2654
I2687
sS'1784363573'
p2655
I1878
sS'1368412107'
p2656
I2689
sS'3441266811'
p2657
I2690
sS'2204029945'
p2658
I2691
sS'272886293'
p2659
I2692
sS'1912059312'
p2660
I2401
sS'2993544760'
p2661
I2694
sS'1859538565'
p2662
I2695
sS'3261647162'
p2663
I2696
sS'1879908611'
p2664
I2697
sS'3486057072'
p2665
I1906
sS'4145252615'
p2666
I74
sS'1027766032'
p2667
I2700
sS'2248506579'
p2668
I2147
sS'2440671055'
p2669
I2702
sS'645414373'
p2670
I2703
sS'352560129'
p2671
I2704
sS'156079457'
p2672
I2705
sS'867285031'
p2673
I2706
sS'3500240032'
p2674
I2707
sS'2068379568'
p2675
I2708
sS'1313492534'
p2676
I2709
sS'1757951758'
p2677
I2737
sS'3812598434'
p2678
I2712
sS'1058920791'
p2679
I2713
sS'2074086523'
p2680
I2714
sS'973677184'
p2681
I2716
sS'2369345147'
p2682
I2563
sS'3864685851'
p2683
I436
sS'2225154987'
p2684
I2150
sS'4036343234'
p2685
I2719
sS'985718337'
p2686
I2720
sS'2244689014'
p2687
I3159
sS'316066613'
p2688
I2721
sS'2971846635'
p2689
I2722
sS'818241254'
p2690
I2723
sS'3822101402'
p2691
I2631
sS'2441936878'
p2692
I2725
sS'4188511767'
p2693
I2726
sS'1184895977'
p2694
I2727
sS'141849067'
p2695
I2728
sS'400738124'
p2696
I2729
sS'2660754061'
p2697
I1816
sS'2006663136'
p2698
I2730
sS'1344653000'
p2699
I2731
sS'2034536037'
p2700
I2732
sS'2083900381'
p2701
I2733
sS'4268968909'
p2702
I2734
sS'1020875748'
p2703
I2735
sS'3006433212'
p2704
I2736
sS'3828963415'
p2705
I2711
sS'151534919'
p2706
I804
sS'3686871863'
p2707
I2739
sS'3903823612'
p2708
I2740
sS'1925883781'
p2709
I2741
sS'1326846562'
p2710
I2742
sS'2932100756'
p2711
I2743
sS'1112899728'
p2712
I1079
sS'4148656943'
p2713
I2745
sS'3211659078'
p2714
I2441
sS'4016703162'
p2715
I2747
sS'1871580056'
p2716
I2748
sS'71688472'
p2717
I2749
sS'4205046694'
p2718
I2750
sS'1115249498'
p2719
I2751
sS'4134124728'
p2720
I2316
sS'990116823'
p2721
I2753
sS'4051862296'
p2722
I1352
sS'1010701404'
p2723
I2755
sS'4190165036'
p2724
I2756
sS'2930631258'
p2725
I2757
sS'3867877244'
p2726
I2758
sS'174994783'
p2727
I2759
sS'3467219840'
p2728
I2760
sS'638210143'
p2729
I2761
sS'1539932789'
p2730
I2135
sS'1799323346'
p2731
I2763
sS'2635167233'
p2732
I2156
sS'363577443'
p2733
I2765
sS'2864941156'
p2734
I2766
sS'778295633'
p2735
I2767
sS'2515029406'
p2736
I1410
sS'3210719423'
p2737
I2770
sS'489332113'
p2738
I2771
sS'1795877465'
p2739
I2772
sS'3033728418'
p2740
I2773
sS'4070008434'
p2741
I2774
sS'531662584'
p2742
I2775
sS'2343762978'
p2743
I2752
sS'2963121670'
p2744
I2778
sS'2954864792'
p2745
I2779
sS'2399025474'
p2746
I2780
sS'2701755218'
p2747
I2781
sS'2465513009'
p2748
I2782
sS'3508414044'
p2749
I2754
sS'4211609391'
p2750
I2784
sS'2403055502'
p2751
I2785
sS'3400749749'
p2752
I191
sS'3691949299'
p2753
I2265
sS'786776836'
p2754
I2788
sS'3930161610'
p2755
I2789
sS'2348719537'
p2756
I1811
sS'3507534894'
p2757
I2790
sS'1148091006'
p2758
I3294
sS'786844289'
p2759
I2792
sS'3788009173'
p2760
I2793
sS'2483584418'
p2761
I2794
sS'283032695'
p2762
I2795
sS'4075466480'
p2763
I2796
sS'572449222'
p2764
I2797
sS'2251800772'
p2765
I2798
sS'3811993332'
p2766
I2799
sS'3384327553'
p2767
I2800
sS'2321074684'
p2768
I2701
sS'1221391751'
p2769
I2802
sS'1269478831'
p2770
I2803
sS'2975408825'
p2771
I2804
sS'969572676'
p2772
I2805
sS'3739086221'
p2773
I2806
sS'1544537243'
p2774
I1091
sS'1467753127'
p2775
I2808
sS'195055182'
p2776
I2809
sS'2409482937'
p2777
I2810
sS'1066906993'
p2778
I2811
sS'120053518'
p2779
I2812
sS'2205536033'
p2780
I2813
sS'1625052108'
p2781
I2814
sS'1034862978'
p2782
I869
sS'1964309262'
p2783
I2816
sS'3492585943'
p2784
I1508
sS'1637866930'
p2785
I157
sS'2616413085'
p2786
I2819
sS'1686132519'
p2787
I2776
sS'107783241'
p2788
I2821
sS'3951036457'
p2789
I2822
sS'2256989025'
p2790
I2823
sS'4272342830'
p2791
I2824
sS'1955766052'
p2792
I2825
sS'683588589'
p2793
I2826
sS'69302861'
p2794
I2002
sS'2545657612'
p2795
I2762
sS'3971863644'
p2796
I2829
sS'57075229'
p2797
I2570
sS'3394779937'
p2798
I2831
sS'1918148274'
p2799
I2832
sS'96931058'
p2800
I3257
sS'635462786'
p2801
I2833
sS'1607509210'
p2802
I2834
sS'2162823560'
p2803
I2835
sS'2101691514'
p2804
I2836
sS'2178256738'
p2805
I2837
sS'2667370728'
p2806
I2838
sS'1927515781'
p2807
I2839
sS'2940917694'
p2808
I2840
sS'843843832'
p2809
I2841
sS'1981701814'
p2810
I2209
sS'3981117943'
p2811
I2843
sS'2793393083'
p2812
I3301
sS'1995030251'
p2813
I2845
sS'1958055739'
p2814
I2846
sS'3721561384'
p2815
I2847
sS'3553611984'
p2816
I1052
sS'1500569811'
p2817
I2849
sS'4245654844'
p2818
I2850
sS'2419536569'
p2819
I2851
sS'2813753172'
p2820
I2852
sS'3330061773'
p2821
I2853
sS'23150045'
p2822
I2854
sS'1996678705'
p2823
I2855
sS'780238213'
p2824
I2856
sS'2906437598'
p2825
I499
sS'2222162186'
p2826
I2858
sS'887085722'
p2827
I2859
sS'1536104641'
p2828
I2860
sS'1345896548'
p2829
I2861
sS'855146601'
p2830
I2413
sS'1055981550'
p2831
I2768
sS'2416903887'
p2832
I2864
sS'1872064755'
p2833
I55
sS'2212919969'
p2834
I2867
sS'1882928667'
p2835
I2868
sS'4031987130'
p2836
I2869
sS'818504714'
p2837
I3260
sS'1741814612'
p2838
I2870
sS'1918945522'
p2839
I2871
sS'2458053629'
p2840
I2872
sS'1170938005'
p2841
I2873
sS'473558899'
p2842
I1208
sS'763615925'
p2843
I2875
sS'4226575687'
p2844
I378
sS'1728055600'
p2845
I117
sS'1412643824'
p2846
I121
sS'395811323'
p2847
I2879
sS'4008611364'
p2848
I2880
sS'3042360462'
p2849
I2881
sS'3384998777'
p2850
I2882
sS'1834669948'
p2851
I2883
sS'4275037038'
p2852
I2884
sS'640531312'
p2853
I2885
sS'2723711433'
p2854
I2886
sS'167608261'
p2855
I2887
sS'806278943'
p2856
I2888
sS'149914134'
p2857
I2889
sS'252627634'
p2858
I179
sS'2981133909'
p2859
I182
sS'3482266552'
p2860
I186
sS'1531952242'
p2861
I2893
sS'1419064403'
p2862
I2894
sS'1772941037'
p2863
I2895
sS'1543462230'
p2864
I224
sS'4199616576'
p2865
I2897
sS'3390146258'
p2866
I2898
sS'547302435'
p2867
I2899
sS'2896254370'
p2868
I2900
sS'4097717860'
p2869
I2673
sS'2678956041'
p2870
I2902
sS'411622998'
p2871
I2903
sS'3464554032'
p2872
I2904
sS'934187073'
p2873
I2905
sS'795601011'
p2874
I2906
sS'121528378'
p2875
I2907
sS'1407547363'
p2876
I2908
sS'188875346'
p2877
I2177
sS'3944021305'
p2878
I305
sS'2630103442'
p2879
I2911
sS'393556601'
p2880
I329
sS'1619453117'
p2881
I2913
sS'4190879012'
p2882
I339
sS'367845178'
p2883
I2915
sS'73288922'
p2884
I2916
sS'1619040661'
p2885
I2917
sS'71092144'
p2886
I2918
sS'4005594979'
p2887
I2919
sS'2577093097'
p2888
I2777
sS'3044183470'
p2889
I2920
sS'2912946138'
p2890
I3310
sS'187910813'
p2891
I2921
sS'2920617215'
p2892
I815
sS'3062811490'
p2893
I2923
sS'3833637800'
p2894
I2924
sS'4288669162'
p2895
I432
sS'1150601139'
p2896
I2926
sS'1952293169'
p2897
I2927
sS'2206472604'
p2898
I2928
sS'3467140948'
p2899
I2929
sS'3365747117'
p2900
I645
sS'604530209'
p2901
I2931
sS'19283444'
p2902
I2932
sS'3587335204'
p2903
I2933
sS'3180412264'
p2904
I2934
sS'4246010516'
p2905
I2935
sS'2242443745'
p2906
I2936
sS'2239318984'
p2907
I2937
sS'3279316025'
p2908
I2938
sS'2885761776'
p2909
I2180
sS'2754172608'
p2910
I2940
sS'4132156908'
p2911
I511
sS'1784981569'
p2912
I2942
sS'3424054391'
p2913
I2943
sS'2755154178'
p2914
I542
sS'3680318580'
p2915
I546
sS'2512094999'
p2916
I2946
sS'3995442796'
p2917
I3313
sS'2205166542'
p2918
I2783
sS'1729709850'
p2919
I2948
sS'3505511916'
p2920
I2949
sS'2022846287'
p2921
I600
sS'2236546150'
p2922
I2951
sS'3004312073'
p2923
I2786
sS'1990497157'
p2924
I2953
sS'217443195'
p2925
I3315
sS'2771438232'
p2926
I2955
sS'1668862262'
p2927
I2956
sS'2286292570'
p2928
I2787
sS'2080715583'
p2929
I2939
sS'1047741032'
p2930
I2959
sS'2467063943'
p2931
I216
sS'3594879390'
p2932
I2961
sS'3731356523'
p2933
I2962
sS'3376295099'
p2934
I167
sS'1819190828'
p2935
I2964
sS'3348106292'
p2936
I2965
sS'1186383301'
p2937
I2966
sS'1162995930'
p2938
I2967
sS'1749528606'
p2939
I2968
sS'1060099431'
p2940
I2969
sS'135706634'
p2941
I2970
sS'99141124'
p2942
I2971
sS'3368369538'
p2943
I2972
sS'3633106414'
p2944
I2973
sS'3987684633'
p2945
I1830
sS'1159947871'
p2946
I2975
sS'1208562840'
p2947
I2322
sS'403920458'
p2948
I2977
sS'809834239'
p2949
I2978
sS'1824088561'
p2950
I799
sS'1301544506'
p2951
I2980
sS'3815746762'
p2952
I809
sS'1833128849'
p2953
I2982
sS'1447459888'
p2954
I2983
sS'2422236655'
p2955
I2984
sS'1119929505'
p2956
I2985
sS'1721715566'
p2957
I2986
sS'4293103086'
p2958
I2715
sS'72298333'
p2959
I2988
sS'74504185'
p2960
I2989
sS'87299174'
p2961
I2990
sS'3466521212'
p2962
I2991
sS'139480407'
p2963
I2992
sS'227195072'
p2964
I2993
sS'1322959747'
p2965
I609
sS'1911617585'
p2966
I2995
sS'320767777'
p2967
I2874
sS'3393069828'
p2968
I2996
sS'3521411736'
p2969
I2997
sS'4058821927'
p2970
I2998
sS'1555879260'
p2971
I2999
sS'1611246540'
p2972
I3137
sS'3440770225'
p2973
I3000
sS'2223946882'
p2974
I3001
sS'2789613386'
p2975
I3002
sS'474339142'
p2976
I3003
sS'4180064266'
p2977
I2958
sS'2889282959'
p2978
I3006
sS'1895679477'
p2979
I3007
sS'2010045207'
p2980
I3008
sS'2022308068'
p2981
I3009
sS'2813573544'
p2982
I3010
sS'2864899561'
p2983
I3011
sS'75436593'
p2984
I796
sS'411205694'
p2985
I1024
sS'2399006053'
p2986
I3014
sS'2740017993'
p2987
I3015
sS'2065629938'
p2988
I3016
sS'3089564924'
p2989
I2184
sS'2717402855'
p2990
I3017
sS'3462246595'
p2991
I716
sS'544449933'
p2992
I3018
sS'3203593930'
p2993
I3019
sS'1538685648'
p2994
I3020
sS'3082761932'
p2995
I3021
sS'1144485498'
p2996
I3022
sS'942095316'
p2997
I3023
sS'222319155'
p2998
I3024
sS'681315287'
p2999
I3025
sS'369085214'
p3000
I3026
sS'1017536864'
p3001
I3027
sS'1868178875'
p3002
I3028
sS'2326237915'
p3003
I3320
sS'3375265240'
p3004
I2261
sS'967988763'
p3005
I3030
sS'282335733'
p3006
I2586
sS'2216123501'
p3007
I1788
sS'1897267951'
p3008
I1143
sS'1384880491'
p3009
I3033
sS'2902208687'
p3010
I2195
sS'4026562594'
p3011
I3035
sS'793834125'
p3012
I2857
sS'3603006634'
p3013
I3036
sS'1001062210'
p3014
I3037
sS'2090888096'
p3015
I3038
sS'2491651409'
p3016
I3039
sS'1227484684'
p3017
I3040
sS'3210206992'
p3018
I3041
sS'78065188'
p3019
I2801
sS'4030798150'
p3020
I1215
sS'964581027'
p3021
I2198
sS'2869450440'
p3022
I3044
sS'4024328014'
p3023
I1225
sS'2654323600'
p3024
I3046
sS'3945099542'
p3025
I3047
sS'589868615'
p3026
I1745
sS'3804509987'
p3027
I3048
sS'2400147519'
p3028
I3049
sS'3242215738'
p3029
I1763
sS'685468996'
p3030
I3051
sS'138126692'
p3031
I3052
sS'3864347911'
p3032
I3053
sS'428619631'
p3033
I1271
sS'3555067038'
p3034
I3043
sS'5574997'
p3035
I3056
sS'3939277895'
p3036
I1287
sS'4202112938'
p3037
I3058
sS'4005906279'
p3038
I3059
sS'1261451506'
p3039
I3060
sS'1842145373'
p3040
I1298
sS'639409951'
p3041
I3062
sS'4262553869'
p3042
I3063
sS'599144899'
p3043
I3064
sS'2098666939'
p3044
I3065
sS'3859970866'
p3045
I3066
sS'3404441712'
p3046
I3067
sS'3162849104'
p3047
I1319
sS'3459927853'
p3048
I3069
sS'3943175229'
p3049
I1325
sS'2384215566'
p3050
I3071
sS'94142526'
p3051
I3072
sS'3258281955'
p3052
I3073
sS'2891771317'
p3053
I3074
sS'496936219'
p3054
I3075
sS'3422212913'
p3055
I3076
sS'4204903154'
p3056
I3077
sS'1931485787'
p3057
I3078
sS'1474879368'
p3058
I2336
sS'826927178'
p3059
I2807
sS'515293671'
p3060
I3081
sS'1166204486'
p3061
I3082
sS'2272113940'
p3062
I1402
sS'1219372694'
p3063
I3338
sS'3287283918'
p3064
I1416
sS'2722906127'
p3065
I2663
sS'4005604348'
p3066
I3086
sS'2546983756'
p3067
I3087
sS'2464597212'
p3068
I3088
sS'4024053152'
p3069
I3089
sS'3353825628'
p3070
I3090
sS'2959872768'
p3071
I3091
sS'2243396544'
p3072
I3092
sS'76313799'
p3073
I3093
sS'1945364081'
p3074
I3094
sS'4156591803'
p3075
I3095
sS'1545906782'
p3076
I1482
sS'2059471156'
p3077
I3097
sS'1309915074'
p3078
I3098
sS'2703461171'
p3079
I3295
sS'3329238167'
p3080
I3100
sS'48222018'
p3081
I3101
sS'1210932037'
p3082
I3102
sS'1890795413'
p3083
I3103
sS'3808055269'
p3084
I1545
sS'33966018'
p3085
I3105
sS'3257224121'
p3086
I3106
sS'3145229913'
p3087
I3107
sS'3167658465'
p3088
I3108
sS'2170573833'
p3089
I3109
sS'666374166'
p3090
I3110
sS'900679620'
p3091
I3111
sS'404226314'
p3092
I3112
sS'1634011224'
p3093
I3113
sS'1860318569'
p3094
I3114
sS'1802788012'
p3095
I3115
sS'2767944555'
p3096
I1625
sS'4040113414'
p3097
I1635
sS'2480681213'
p3098
I3118
sS'641678389'
p3099
I3119
sS'3964856605'
p3100
I2572
sS'1567057770'
p3101
I1653
sS'498762190'
p3102
I3122
sS'4261340176'
p3103
I3123
sS'1280283349'
p3104
I3124
sS'4054029300'
p3105
I2605
sS'2878084097'
p3106
I3126
sS'4166294065'
p3107
I2479
sS'2495407859'
p3108
I3128
sS'793842953'
p3109
I3129
sS'1931229576'
p3110
I1706
sS'1956869615'
p3111
I3131
sS'2313021179'
p3112
I3132
sS'4179324570'
p3113
I3133
sS'4206471336'
p3114
I3134
sS'4198845543'
p3115
I3135
sS'2694809416'
p3116
I3121
sS'1269929715'
p3117
I1569
sS'3198801990'
p3118
I2817
sS'803991005'
p3119
I2876
sS'2402997707'
p3120
I1761
sS'3157328676'
p3121
I3139
sS'293887296'
p3122
I3140
sS'3299137750'
p3123
I3141
sS'1177603447'
p3124
I3142
sS'1150855279'
p3125
I2818
sS'2768250886'
p3126
I3143
sS'845573336'
p3127
I3144
sS'3961606436'
p3128
I1813
sS'3031242464'
p3129
I2828
sS'2902724458'
p3130
I3147
sS'2380308964'
p3131
I3148
sS'139210489'
p3132
I3149
sS'3813354209'
p3133
I2223
sS'2690867178'
p3134
I3151
sS'1952989987'
p3135
I3152
sS'1923507186'
p3136
I3153
sS'7514340'
p3137
I3154
sS'1805025807'
p3138
I3155
sS'481236042'
p3139
I3349
sS'1905298796'
p3140
I3156
sS'2685090431'
p3141
I3157
sS'2559754952'
p3142
I3158
sS'1954551442'
p3143
I2769
sS'593799836'
p3144
I3161
sS'2975026524'
p3145
I1910
sS'1622366272'
p3146
I3163
sS'1662308136'
p3147
I3164
sS'1087870025'
p3148
I3165
sS'1344492095'
p3149
I2227
sS'3156258711'
p3150
I3167
sS'2872854546'
p3151
I2941
sS'2367420878'
p3152
I3169
sS'602551909'
p3153
I3170
sS'1808101898'
p3154
I3171
sS'2768571751'
p3155
I2699
sS'3679105159'
p3156
I718
sS'842198355'
p3157
I1968
sS'3594731327'
p3158
I3174
sS'2030266367'
p3159
I1982
sS'2023976924'
p3160
I3176
sS'3445274859'
p3161
I2371
sS'1452836623'
p3162
I3178
sS'2853688818'
p3163
I1996
sS'1126868438'
p3164
I3180
sS'2261578513'
p3165
I3181
sS'925172794'
p3166
I2031
sS'3348417635'
p3167
I3183
sS'3226236386'
p3168
I3184
sS'2259554717'
p3169
I2054
sS'4072712031'
p3170
I3186
sS'307271704'
p3171
I3187
sS'3883721026'
p3172
I3188
sS'1776705938'
p3173
I3189
sS'492612031'
p3174
I3190
sS'110128780'
p3175
I3191
sS'4116824604'
p3176
I2830
sS'641836752'
p3177
I3192
sS'2496550100'
p3178
I3193
sS'627948360'
p3179
I3194
sS'2622502489'
p3180
I2124
sS'3170052426'
p3181
I3196
sS'2143805175'
p3182
I2355
sS'2911203191'
p3183
I3198
sS'1761058217'
p3184
I2827
sS'1427626481'
p3185
I3200
sS'1101972092'
p3186
I2013
sS'210626346'
p3187
I3323
sS'2706413631'
p3188
I3202
sS'180779799'
p3189
I3203
sS'640550522'
p3190
I2163
sS'3393388475'
p3191
I3205
sS'532014578'
p3192
I3359
sS'2541238114'
p3193
I3206
sS'1940954160'
p3194
I3207
sS'4012638060'
p3195
I3208
sS'1415422982'
p3196
I3209
sS'2789486165'
p3197
I3210
sS'577206982'
p3198
I3211
sS'2700358387'
p3199
I3212
sS'1929993059'
p3200
I3213
sS'601094182'
p3201
I3214
sS'2849010050'
p3202
I3215
sS'2386208218'
p3203
I3216
sS'3504006486'
p3204
I2314
sS'694709965'
p3205
I3217
sS'3943899827'
p3206
I1687
sS'2936934993'
p3207
I3218
sS'981507216'
p3208
I3219
sS'3752474458'
p3209
I3220
sS'3300006570'
p3210
I3160
sS'703937963'
p3211
I3222
sS'1548590231'
p3212
I3223
sS'2015847697'
p3213
I3224
sS'730373215'
p3214
I965
sS'3251568850'
p3215
I3226
sS'4125614780'
p3216
I3227
sS'2251278782'
p3217
I2373
sS'3850128249'
p3218
I3229
sS'2883315236'
p3219
I3230
sS'363257522'
p3220
I3231
sS'2460812912'
p3221
I3232
sS'1013594520'
p3222
I3233
sS'1429212077'
p3223
I2406
sS'4019660902'
p3224
I2411
sS'1422762628'
p3225
I3236
sS'4276320842'
p3226
I3237
sS'2675088061'
p3227
I3238
sS'4165482530'
p3228
I2431
sS'3076344276'
p3229
I3240
sS'3664264982'
p3230
I3241
sS'3695179498'
p3231
I2450
sS'48380986'
p3232
I3243
sS'1084997316'
p3233
I3244
sS'1130967213'
p3234
I3245
sS'3445686240'
p3235
I3246
sS'1935886581'
p3236
I3247
sS'4103253513'
p3237
I3248
sS'728332848'
p3238
I3249
sS'1617945253'
p3239
I3250
sS'1115995297'
p3240
I3251
sS'2378571713'
p3241
I3252
sS'2645338549'
p3242
I1923
sS'4052225912'
p3243
I3254
sS'2945719859'
p3244
I2515
sS'4269957924'
p3245
I3256
sS'3435412352'
p3246
I562
sS'457456094'
p3247
I3258
sS'1301945337'
p3248
I3259
sS'3669515588'
p3249
I3221
sS'3848620961'
p3250
I2561
sS'3579660533'
p3251
I2290
sS'1154164776'
p3252
I3261
sS'2092954906'
p3253
I2596
sS'898918449'
p3254
I3369
sS'1855764195'
p3255
I3296
sS'4111854243'
p3256
I3264
sS'1990188032'
p3257
I2244
sS'546007936'
p3258
I3266
sS'3475765358'
p3259
I3267
sS'4047903240'
p3260
I3268
sS'2805512120'
p3261
I3269
sS'2724319931'
p3262
I3275
sS'1418885681'
p3263
I3270
sS'3391264132'
p3264
I3271
sS'2342474285'
p3265
I3272
sS'895925498'
p3266
I3273
sS'2933561364'
p3267
I3274
sS'762911677'
p3268
I2247
sS'242262473'
p3269
I3276
sS'4268611130'
p3270
I3277
sS'1641930443'
p3271
I2842
sS'2811723155'
p3272
I3278
sS'466698547'
p3273
I3279
sS'458848274'
p3274
I566
sS'2021435753'
p3275
I3281
sS'1663149119'
p3276
I3282
sS'1330552944'
p3277
I3283
sS'4243934665'
p3278
I3284
sS'178517662'
p3279
I229
sS'1522287705'
p3280
I3286
sS'995064362'
p3281
I2289
sS'2040340167'
p3282
I3287
sS'3742693550'
p3283
I785
sS'3252326922'
p3284
I3288
sS'687313787'
p3285
I3289
sS'336493147'
p3286
I3290
sS'4066539799'
p3287
I3291
sS'1221420614'
p3288
I3292
sS'3622026274'
p3289
I3293
sS'443655774'
p3290
I2791
sS'3009580143'
p3291
I2251
sS'1952195470'
p3292
I3297
sS'712234221'
p3293
I2863
sS'1184737011'
p3294
I2253
sS'2722968909'
p3295
I3298
sS'2814084606'
p3296
I3299
sS'4155564936'
p3297
I3300
sS'4181821860'
p3298
I2844
sS'4009496977'
p3299
I3302
sS'2714575829'
p3300
I3303
sS'3480781792'
p3301
I3304
sS'1602963012'
p3302
I3305
sS'3598550965'
p3303
I3307
sS'238446352'
p3304
I3308
sS'1847581168'
p3305
I3309
sS'1201125575'
p3306
I3080
sS'3474165907'
p3307
I3311
sS'2301837429'
p3308
I2944
sS'176349030'
p3309
I2947
sS'3972581484'
p3310
I3314
sS'1151239535'
p3311
I2954
sS'677048573'
p3312
I3316
sS'2063714458'
p3313
I3317
sS'1628915638'
p3314
I3318
sS'3749087176'
p3315
I3319
sS'495379217'
p3316
I2979
sS'3421333729'
p3317
I3321
sS'3781956022'
p3318
I3322
sS'4157365314'
p3319
I2994
sS'1270740692'
p3320
I3324
sS'2451466347'
p3321
I3325
sS'4098096768'
p3322
I2848
sS'4129856023'
p3323
I2569
sS'1649320589'
p3324
I3380
sS'1783276120'
p3325
I3329
sS'3746792233'
p3326
I3330
sS'3460014666'
p3327
I3331
sS'4082925334'
p3328
I3332
sS'1635772602'
p3329
I3333
sS'4241049734'
p3330
I3334
sS'3186577794'
p3331
I3335
sS'4247553940'
p3332
I3336
sS'488389895'
p3333
I3337
sS'2528421842'
p3334
I3084
sS'2810188071'
p3335
I3262
sS'2451582701'
p3336
I3339
sS'2122304529'
p3337
I3340
sS'2401240952'
p3338
I3341
sS'2791232352'
p3339
I3342
sS'431015679'
p3340
I3343
sS'2491647582'
p3341
I3344
sS'693535188'
p3342
I3345
sS'3279061945'
p3343
I756
sS'3156650528'
p3344
I3346
sS'589386328'
p3345
I3347
sS'2420019637'
p3346
I3348
sS'2007776821'
p3347
I3306
sS'4206209185'
p3348
I3350
sS'1800702076'
p3349
I3351
sS'2850503069'
p3350
I3352
sS'43965236'
p3351
I3353
sS'3909374079'
p3352
I3354
sS'223257533'
p3353
I3355
sS'3449620252'
p3354
I3356
sS'2864836500'
p3355
I3357
sS'2799306064'
p3356
I3358
sS'1524520597'
p3357
I1879
sS'3317432819'
p3358
I3360
sS'3172450732'
p3359
I3361
sS'3775078143'
p3360
I3362
sS'2858284447'
p3361
I3061
sS'1452056386'
p3362
I3363
sS'1144686688'
p3363
I3364
sS'3592311259'
p3364
I3387
sS'2229418801'
p3365
I3366
sS'51165908'
p3366
I3367
sS'4095059025'
p3367
I779
sS'3593927263'
p3368
I3263
sS'1392003365'
p3369
I3370
sS'2919431452'
p3370
I3371
sS'2243518535'
p3371
I3372
sS'3615297413'
p3372
I1841
sS'732078356'
p3373
I3225
sS'2153152806'
p3374
I3374
sS'249918369'
p3375
I3375
sS'320069736'
p3376
I3376
sS'3573553441'
p3377
I3377
sS'1879127286'
p3378
I3378
sS'3511417249'
p3379
I3379
sS'3039417842'
p3380
I3328
sS'749467696'
p3381
I3381
sS'3369635310'
p3382
I2606
sS'2964090531'
p3383
I397
sS'822628520'
p3384
I1700
sS'23465780'
p3385
I3385
sS'331502829'
p3386
I2451
sS'1683687851'
p3387
I3386
sS'634885878'
p3388
I3365
sS'763143562'
p3389
I2987
sS'479907067'
p3390
I3388
sS'3172189947'
p3391
I3389
sS'1953311106'
p3392
I3390
s.